ARM GAS  /var/folders/j4/zsgv5hks61j070b3g480n1j40000gn/T//ccPhVAM6.s 			page 1


   1              		.cpu cortex-m7
   2              		.arch armv7e-m
   3              		.fpu fpv5-d16
   4              		.eabi_attribute 28, 1
   5              		.eabi_attribute 20, 1
   6              		.eabi_attribute 21, 1
   7              		.eabi_attribute 23, 3
   8              		.eabi_attribute 24, 1
   9              		.eabi_attribute 25, 1
  10              		.eabi_attribute 26, 1
  11              		.eabi_attribute 30, 2
  12              		.eabi_attribute 34, 1
  13              		.eabi_attribute 18, 4
  14              		.file	"DaisyDrone.cpp"
  15              		.text
  16              	.Ltext0:
  17              		.cfi_sections	.debug_frame
  18              		.section	.text._ZN5daisy9DaisySeedD2Ev,"axG",%progbits,_ZN5daisy9DaisySeedD5Ev,comdat
  19              		.align	1
  20              		.p2align 2,,3
  21              		.weak	_ZN5daisy9DaisySeedD2Ev
  22              		.syntax unified
  23              		.thumb
  24              		.thumb_func
  26              	_ZN5daisy9DaisySeedD2Ev:
  27              	.LVL0:
  28              	.LFB2040:
  29              		.file 1 "../../Documents/Daisy/DaisyExamples/libdaisy//src/daisy_seed.h"
   1:../../Documents/Daisy/DaisyExamples/libdaisy//src/daisy_seed.h **** #pragma once
   2:../../Documents/Daisy/DaisyExamples/libdaisy//src/daisy_seed.h **** #ifndef DSY_SEED_H
   3:../../Documents/Daisy/DaisyExamples/libdaisy//src/daisy_seed.h **** #define DSY_SEED_H
   4:../../Documents/Daisy/DaisyExamples/libdaisy//src/daisy_seed.h **** 
   5:../../Documents/Daisy/DaisyExamples/libdaisy//src/daisy_seed.h **** #include "daisy.h"
   6:../../Documents/Daisy/DaisyExamples/libdaisy//src/daisy_seed.h **** 
   7:../../Documents/Daisy/DaisyExamples/libdaisy//src/daisy_seed.h **** //Uncomment this out if you're still using the rev2 hardware
   8:../../Documents/Daisy/DaisyExamples/libdaisy//src/daisy_seed.h **** //#define SEED_REV2
   9:../../Documents/Daisy/DaisyExamples/libdaisy//src/daisy_seed.h **** 
  10:../../Documents/Daisy/DaisyExamples/libdaisy//src/daisy_seed.h **** namespace daisy
  11:../../Documents/Daisy/DaisyExamples/libdaisy//src/daisy_seed.h **** {
  12:../../Documents/Daisy/DaisyExamples/libdaisy//src/daisy_seed.h **** /**
  13:../../Documents/Daisy/DaisyExamples/libdaisy//src/daisy_seed.h ****    @brief This is the higher-level interface for the Daisy board. \n 
  14:../../Documents/Daisy/DaisyExamples/libdaisy//src/daisy_seed.h ****     All basic peripheral configuration/initialization is setup here. \n
  15:../../Documents/Daisy/DaisyExamples/libdaisy//src/daisy_seed.h **** 
  16:../../Documents/Daisy/DaisyExamples/libdaisy//src/daisy_seed.h ****    @ingroup boards
  17:../../Documents/Daisy/DaisyExamples/libdaisy//src/daisy_seed.h **** */
  18:../../Documents/Daisy/DaisyExamples/libdaisy//src/daisy_seed.h **** class DaisySeed
  19:../../Documents/Daisy/DaisyExamples/libdaisy//src/daisy_seed.h **** {
  20:../../Documents/Daisy/DaisyExamples/libdaisy//src/daisy_seed.h ****   public:
  21:../../Documents/Daisy/DaisyExamples/libdaisy//src/daisy_seed.h ****     DaisySeed() {}
  22:../../Documents/Daisy/DaisyExamples/libdaisy//src/daisy_seed.h ****     ~DaisySeed() {}
  30              		.loc 1 22 5 view -0
  31              		.cfi_startproc
  32              		@ args = 0, pretend = 0, frame = 0
  33              		@ frame_needed = 0, uses_anonymous_args = 0
  34              		@ link register save eliminated.
  35              	.LBB90:
  36              	.LBI90:
ARM GAS  /var/folders/j4/zsgv5hks61j070b3g480n1j40000gn/T//ccPhVAM6.s 			page 2


  37              		.file 2 "../../Documents/Daisy/DaisyExamples/libdaisy//src/sys/system.h"
   1:../../Documents/Daisy/DaisyExamples/libdaisy//src/sys/system.h **** #ifndef DSY_SYSTEM_H
   2:../../Documents/Daisy/DaisyExamples/libdaisy//src/sys/system.h **** #define DSY_SYSTEM_H
   3:../../Documents/Daisy/DaisyExamples/libdaisy//src/sys/system.h **** 
   4:../../Documents/Daisy/DaisyExamples/libdaisy//src/sys/system.h **** #ifndef UNIT_TEST // for unit tests, a dummy implementation is provided below
   5:../../Documents/Daisy/DaisyExamples/libdaisy//src/sys/system.h **** 
   6:../../Documents/Daisy/DaisyExamples/libdaisy//src/sys/system.h **** #include <cstdint>
   7:../../Documents/Daisy/DaisyExamples/libdaisy//src/sys/system.h **** #include "per/tim.h"
   8:../../Documents/Daisy/DaisyExamples/libdaisy//src/sys/system.h **** 
   9:../../Documents/Daisy/DaisyExamples/libdaisy//src/sys/system.h **** namespace daisy
  10:../../Documents/Daisy/DaisyExamples/libdaisy//src/sys/system.h **** {
  11:../../Documents/Daisy/DaisyExamples/libdaisy//src/sys/system.h **** /** A handle for interacting with the Core System. 
  12:../../Documents/Daisy/DaisyExamples/libdaisy//src/sys/system.h ****  ** This includes the Clock tree, MPU, global DMA initialization,
  13:../../Documents/Daisy/DaisyExamples/libdaisy//src/sys/system.h ****  ** cache handling, and any other necessary global initiailzation
  14:../../Documents/Daisy/DaisyExamples/libdaisy//src/sys/system.h ****  **
  15:../../Documents/Daisy/DaisyExamples/libdaisy//src/sys/system.h ****  ** @author shensley
  16:../../Documents/Daisy/DaisyExamples/libdaisy//src/sys/system.h ****  ** @addtogroup system
  17:../../Documents/Daisy/DaisyExamples/libdaisy//src/sys/system.h ****  */
  18:../../Documents/Daisy/DaisyExamples/libdaisy//src/sys/system.h **** class System
  19:../../Documents/Daisy/DaisyExamples/libdaisy//src/sys/system.h **** {
  20:../../Documents/Daisy/DaisyExamples/libdaisy//src/sys/system.h ****   public:
  21:../../Documents/Daisy/DaisyExamples/libdaisy//src/sys/system.h ****     /** Contains settings for initializing the System */
  22:../../Documents/Daisy/DaisyExamples/libdaisy//src/sys/system.h ****     struct Config
  23:../../Documents/Daisy/DaisyExamples/libdaisy//src/sys/system.h ****     {
  24:../../Documents/Daisy/DaisyExamples/libdaisy//src/sys/system.h ****         /** Specifies the system clock frequency that feeds APB/AHB clocks, etc. */
  25:../../Documents/Daisy/DaisyExamples/libdaisy//src/sys/system.h ****         enum class SysClkFreq
  26:../../Documents/Daisy/DaisyExamples/libdaisy//src/sys/system.h ****         {
  27:../../Documents/Daisy/DaisyExamples/libdaisy//src/sys/system.h ****             FREQ_400MHZ,
  28:../../Documents/Daisy/DaisyExamples/libdaisy//src/sys/system.h ****             FREQ_480MHZ,
  29:../../Documents/Daisy/DaisyExamples/libdaisy//src/sys/system.h ****         };
  30:../../Documents/Daisy/DaisyExamples/libdaisy//src/sys/system.h **** 
  31:../../Documents/Daisy/DaisyExamples/libdaisy//src/sys/system.h ****         /** Method to call on the struct to set to defaults
  32:../../Documents/Daisy/DaisyExamples/libdaisy//src/sys/system.h ****          ** CPU Freq set to 400MHz
  33:../../Documents/Daisy/DaisyExamples/libdaisy//src/sys/system.h ****          ** Cache Enabled 
  34:../../Documents/Daisy/DaisyExamples/libdaisy//src/sys/system.h ****          ** */
  35:../../Documents/Daisy/DaisyExamples/libdaisy//src/sys/system.h ****         void Defaults()
  36:../../Documents/Daisy/DaisyExamples/libdaisy//src/sys/system.h ****         {
  37:../../Documents/Daisy/DaisyExamples/libdaisy//src/sys/system.h ****             cpu_freq    = SysClkFreq::FREQ_400MHZ;
  38:../../Documents/Daisy/DaisyExamples/libdaisy//src/sys/system.h ****             use_dcache  = true;
  39:../../Documents/Daisy/DaisyExamples/libdaisy//src/sys/system.h ****             use_icache  = true;
  40:../../Documents/Daisy/DaisyExamples/libdaisy//src/sys/system.h ****             skip_clocks = false;
  41:../../Documents/Daisy/DaisyExamples/libdaisy//src/sys/system.h ****         }
  42:../../Documents/Daisy/DaisyExamples/libdaisy//src/sys/system.h **** 
  43:../../Documents/Daisy/DaisyExamples/libdaisy//src/sys/system.h ****         /** Method to call on the struct to set to boost mode:
  44:../../Documents/Daisy/DaisyExamples/libdaisy//src/sys/system.h ****          ** CPU Freq set to 480MHz
  45:../../Documents/Daisy/DaisyExamples/libdaisy//src/sys/system.h ****          ** Cache Enabled 
  46:../../Documents/Daisy/DaisyExamples/libdaisy//src/sys/system.h ****          ** */
  47:../../Documents/Daisy/DaisyExamples/libdaisy//src/sys/system.h ****         void Boost()
  48:../../Documents/Daisy/DaisyExamples/libdaisy//src/sys/system.h ****         {
  49:../../Documents/Daisy/DaisyExamples/libdaisy//src/sys/system.h ****             cpu_freq    = SysClkFreq::FREQ_480MHZ;
  50:../../Documents/Daisy/DaisyExamples/libdaisy//src/sys/system.h ****             use_dcache  = true;
  51:../../Documents/Daisy/DaisyExamples/libdaisy//src/sys/system.h ****             use_icache  = true;
  52:../../Documents/Daisy/DaisyExamples/libdaisy//src/sys/system.h ****             skip_clocks = false;
  53:../../Documents/Daisy/DaisyExamples/libdaisy//src/sys/system.h ****         }
  54:../../Documents/Daisy/DaisyExamples/libdaisy//src/sys/system.h **** 
  55:../../Documents/Daisy/DaisyExamples/libdaisy//src/sys/system.h ****         SysClkFreq cpu_freq;
  56:../../Documents/Daisy/DaisyExamples/libdaisy//src/sys/system.h ****         bool       use_dcache;
ARM GAS  /var/folders/j4/zsgv5hks61j070b3g480n1j40000gn/T//ccPhVAM6.s 			page 3


  57:../../Documents/Daisy/DaisyExamples/libdaisy//src/sys/system.h ****         bool       use_icache;
  58:../../Documents/Daisy/DaisyExamples/libdaisy//src/sys/system.h ****         bool       skip_clocks;
  59:../../Documents/Daisy/DaisyExamples/libdaisy//src/sys/system.h ****     };
  60:../../Documents/Daisy/DaisyExamples/libdaisy//src/sys/system.h **** 
  61:../../Documents/Daisy/DaisyExamples/libdaisy//src/sys/system.h ****     /** Describes the different regions of memory available to the Daisy
  62:../../Documents/Daisy/DaisyExamples/libdaisy//src/sys/system.h ****      * 
  63:../../Documents/Daisy/DaisyExamples/libdaisy//src/sys/system.h ****      */
  64:../../Documents/Daisy/DaisyExamples/libdaisy//src/sys/system.h ****     enum MemoryRegion
  65:../../Documents/Daisy/DaisyExamples/libdaisy//src/sys/system.h ****     {
  66:../../Documents/Daisy/DaisyExamples/libdaisy//src/sys/system.h ****         INTERNAL_FLASH = 0,
  67:../../Documents/Daisy/DaisyExamples/libdaisy//src/sys/system.h ****         ITCMRAM,
  68:../../Documents/Daisy/DaisyExamples/libdaisy//src/sys/system.h ****         DTCMRAM,
  69:../../Documents/Daisy/DaisyExamples/libdaisy//src/sys/system.h ****         SRAM_D1,
  70:../../Documents/Daisy/DaisyExamples/libdaisy//src/sys/system.h ****         SRAM_D2,
  71:../../Documents/Daisy/DaisyExamples/libdaisy//src/sys/system.h ****         SRAM_D3,
  72:../../Documents/Daisy/DaisyExamples/libdaisy//src/sys/system.h ****         SDRAM,
  73:../../Documents/Daisy/DaisyExamples/libdaisy//src/sys/system.h ****         QSPI,
  74:../../Documents/Daisy/DaisyExamples/libdaisy//src/sys/system.h ****         INVALID_ADDRESS,
  75:../../Documents/Daisy/DaisyExamples/libdaisy//src/sys/system.h ****     };
  76:../../Documents/Daisy/DaisyExamples/libdaisy//src/sys/system.h **** 
  77:../../Documents/Daisy/DaisyExamples/libdaisy//src/sys/system.h ****     System() {}
  78:../../Documents/Daisy/DaisyExamples/libdaisy//src/sys/system.h ****     ~System() {}
  38              		.loc 2 78 5 view .LVU1
  39              		.loc 2 78 5 is_stmt 0 view .LVU2
  40              	.LBE90:
  41              	.LBB91:
  42              	.LBI91:
  43              		.file 3 "../../Documents/Daisy/DaisyExamples/libdaisy//src/hid/usb.h"
   1:../../Documents/Daisy/DaisyExamples/libdaisy//src/hid/usb.h **** #pragma once
   2:../../Documents/Daisy/DaisyExamples/libdaisy//src/hid/usb.h **** #ifndef DSY_HID_USB_H
   3:../../Documents/Daisy/DaisyExamples/libdaisy//src/hid/usb.h **** #define DSY_HID_USB_H
   4:../../Documents/Daisy/DaisyExamples/libdaisy//src/hid/usb.h **** #include <stdint.h>
   5:../../Documents/Daisy/DaisyExamples/libdaisy//src/hid/usb.h **** #include <stdlib.h>
   6:../../Documents/Daisy/DaisyExamples/libdaisy//src/hid/usb.h **** 
   7:../../Documents/Daisy/DaisyExamples/libdaisy//src/hid/usb.h **** namespace daisy
   8:../../Documents/Daisy/DaisyExamples/libdaisy//src/hid/usb.h **** /** @addtogroup externals
   9:../../Documents/Daisy/DaisyExamples/libdaisy//src/hid/usb.h ****     @{
  10:../../Documents/Daisy/DaisyExamples/libdaisy//src/hid/usb.h **** */
  11:../../Documents/Daisy/DaisyExamples/libdaisy//src/hid/usb.h **** 
  12:../../Documents/Daisy/DaisyExamples/libdaisy//src/hid/usb.h **** {
  13:../../Documents/Daisy/DaisyExamples/libdaisy//src/hid/usb.h **** /** 
  14:../../Documents/Daisy/DaisyExamples/libdaisy//src/hid/usb.h ****     @brief Interface for initializing and using the USB Peripherals on the daisy
  15:../../Documents/Daisy/DaisyExamples/libdaisy//src/hid/usb.h ****     @author Stephen Hensley
  16:../../Documents/Daisy/DaisyExamples/libdaisy//src/hid/usb.h ****     @date December 2019
  17:../../Documents/Daisy/DaisyExamples/libdaisy//src/hid/usb.h **** */
  18:../../Documents/Daisy/DaisyExamples/libdaisy//src/hid/usb.h **** class UsbHandle
  19:../../Documents/Daisy/DaisyExamples/libdaisy//src/hid/usb.h **** {
  20:../../Documents/Daisy/DaisyExamples/libdaisy//src/hid/usb.h ****   public:
  21:../../Documents/Daisy/DaisyExamples/libdaisy//src/hid/usb.h ****     /** Return values for USBHandle Functions */
  22:../../Documents/Daisy/DaisyExamples/libdaisy//src/hid/usb.h ****     enum class Result
  23:../../Documents/Daisy/DaisyExamples/libdaisy//src/hid/usb.h ****     {
  24:../../Documents/Daisy/DaisyExamples/libdaisy//src/hid/usb.h ****         OK,
  25:../../Documents/Daisy/DaisyExamples/libdaisy//src/hid/usb.h ****         ERR,
  26:../../Documents/Daisy/DaisyExamples/libdaisy//src/hid/usb.h ****     };
  27:../../Documents/Daisy/DaisyExamples/libdaisy//src/hid/usb.h **** 
  28:../../Documents/Daisy/DaisyExamples/libdaisy//src/hid/usb.h ****     /** Specified which of the two USB Peripherals to initialize. */
  29:../../Documents/Daisy/DaisyExamples/libdaisy//src/hid/usb.h ****     enum UsbPeriph
ARM GAS  /var/folders/j4/zsgv5hks61j070b3g480n1j40000gn/T//ccPhVAM6.s 			page 4


  30:../../Documents/Daisy/DaisyExamples/libdaisy//src/hid/usb.h ****     {
  31:../../Documents/Daisy/DaisyExamples/libdaisy//src/hid/usb.h ****         FS_INTERNAL, /**< Internal pin */
  32:../../Documents/Daisy/DaisyExamples/libdaisy//src/hid/usb.h ****         FS_EXTERNAL, /**< FS External D+ pin is Pin 38 (GPIO32). FS External D- pin is Pin 37 (GPIO
  33:../../Documents/Daisy/DaisyExamples/libdaisy//src/hid/usb.h ****         FS_BOTH,     /**< Both */
  34:../../Documents/Daisy/DaisyExamples/libdaisy//src/hid/usb.h ****     };
  35:../../Documents/Daisy/DaisyExamples/libdaisy//src/hid/usb.h **** 
  36:../../Documents/Daisy/DaisyExamples/libdaisy//src/hid/usb.h **** 
  37:../../Documents/Daisy/DaisyExamples/libdaisy//src/hid/usb.h ****     /** Function called upon reception of a buffer */
  38:../../Documents/Daisy/DaisyExamples/libdaisy//src/hid/usb.h ****     typedef void (*ReceiveCallback)(uint8_t* buff, uint32_t* len);
  39:../../Documents/Daisy/DaisyExamples/libdaisy//src/hid/usb.h **** 
  40:../../Documents/Daisy/DaisyExamples/libdaisy//src/hid/usb.h ****     UsbHandle() {}
  41:../../Documents/Daisy/DaisyExamples/libdaisy//src/hid/usb.h **** 
  42:../../Documents/Daisy/DaisyExamples/libdaisy//src/hid/usb.h ****     ~UsbHandle() {}
  44              		.loc 3 42 5 is_stmt 1 view .LVU3
  45              		.loc 3 42 5 is_stmt 0 view .LVU4
  46              	.LBE91:
  47              	.LBB92:
  48              	.LBI92:
  49              		.file 4 "../../Documents/Daisy/DaisyExamples/libdaisy//src/per/adc.h"
   1:../../Documents/Daisy/DaisyExamples/libdaisy//src/per/adc.h **** #pragma once
   2:../../Documents/Daisy/DaisyExamples/libdaisy//src/per/adc.h **** #ifndef DSY_ADC_H
   3:../../Documents/Daisy/DaisyExamples/libdaisy//src/per/adc.h **** #define DSY_ADC_H /**< Macro */
   4:../../Documents/Daisy/DaisyExamples/libdaisy//src/per/adc.h **** #include <stdint.h>
   5:../../Documents/Daisy/DaisyExamples/libdaisy//src/per/adc.h **** #include <stdlib.h>
   6:../../Documents/Daisy/DaisyExamples/libdaisy//src/per/adc.h **** #include "daisy_core.h"
   7:../../Documents/Daisy/DaisyExamples/libdaisy//src/per/adc.h **** #include "per/gpio.h"
   8:../../Documents/Daisy/DaisyExamples/libdaisy//src/per/adc.h **** 
   9:../../Documents/Daisy/DaisyExamples/libdaisy//src/per/adc.h **** #define DSY_ADC_MAX_CHANNELS 16 /**< Maximum number of ADC channels */
  10:../../Documents/Daisy/DaisyExamples/libdaisy//src/per/adc.h **** 
  11:../../Documents/Daisy/DaisyExamples/libdaisy//src/per/adc.h **** namespace daisy
  12:../../Documents/Daisy/DaisyExamples/libdaisy//src/per/adc.h **** {
  13:../../Documents/Daisy/DaisyExamples/libdaisy//src/per/adc.h **** /** @addtogroup analog_digital_conversion
  14:../../Documents/Daisy/DaisyExamples/libdaisy//src/per/adc.h ****     @{
  15:../../Documents/Daisy/DaisyExamples/libdaisy//src/per/adc.h **** */
  16:../../Documents/Daisy/DaisyExamples/libdaisy//src/per/adc.h **** 
  17:../../Documents/Daisy/DaisyExamples/libdaisy//src/per/adc.h **** /* While there may not be many configuration options here,
  18:../../Documents/Daisy/DaisyExamples/libdaisy//src/per/adc.h **** using a struct like this allows us to add more configuration
  19:../../Documents/Daisy/DaisyExamples/libdaisy//src/per/adc.h **** later without breaking existing functionality.
  20:../../Documents/Daisy/DaisyExamples/libdaisy//src/per/adc.h **** */
  21:../../Documents/Daisy/DaisyExamples/libdaisy//src/per/adc.h **** 
  22:../../Documents/Daisy/DaisyExamples/libdaisy//src/per/adc.h **** /** Configuration Structure for a given channel */
  23:../../Documents/Daisy/DaisyExamples/libdaisy//src/per/adc.h **** struct AdcChannelConfig
  24:../../Documents/Daisy/DaisyExamples/libdaisy//src/per/adc.h **** {
  25:../../Documents/Daisy/DaisyExamples/libdaisy//src/per/adc.h ****     /** Which pin to use for multiplexing */
  26:../../Documents/Daisy/DaisyExamples/libdaisy//src/per/adc.h ****     enum MuxPin
  27:../../Documents/Daisy/DaisyExamples/libdaisy//src/per/adc.h ****     {
  28:../../Documents/Daisy/DaisyExamples/libdaisy//src/per/adc.h ****         MUX_SEL_0,    /**< & */
  29:../../Documents/Daisy/DaisyExamples/libdaisy//src/per/adc.h ****         MUX_SEL_1,    /**< & */
  30:../../Documents/Daisy/DaisyExamples/libdaisy//src/per/adc.h ****         MUX_SEL_2,    /**< & */
  31:../../Documents/Daisy/DaisyExamples/libdaisy//src/per/adc.h ****         MUX_SEL_LAST, /**< & */
  32:../../Documents/Daisy/DaisyExamples/libdaisy//src/per/adc.h ****     };
  33:../../Documents/Daisy/DaisyExamples/libdaisy//src/per/adc.h **** 
  34:../../Documents/Daisy/DaisyExamples/libdaisy//src/per/adc.h ****     /** Initializes a single ADC pin as an ADC. 
  35:../../Documents/Daisy/DaisyExamples/libdaisy//src/per/adc.h ****     \param pin Pin to init.
  36:../../Documents/Daisy/DaisyExamples/libdaisy//src/per/adc.h ****      */
  37:../../Documents/Daisy/DaisyExamples/libdaisy//src/per/adc.h ****     void InitSingle(dsy_gpio_pin pin);
  38:../../Documents/Daisy/DaisyExamples/libdaisy//src/per/adc.h **** 
ARM GAS  /var/folders/j4/zsgv5hks61j070b3g480n1j40000gn/T//ccPhVAM6.s 			page 5


  39:../../Documents/Daisy/DaisyExamples/libdaisy//src/per/adc.h ****     /** 
  40:../../Documents/Daisy/DaisyExamples/libdaisy//src/per/adc.h ****     Initializes a single ADC pin as a Multiplexed ADC.
  41:../../Documents/Daisy/DaisyExamples/libdaisy//src/per/adc.h ****     Requires a CD405X Multiplexer connected to the pin.
  42:../../Documents/Daisy/DaisyExamples/libdaisy//src/per/adc.h ****     You only need to supply the mux pins that are required,
  43:../../Documents/Daisy/DaisyExamples/libdaisy//src/per/adc.h ****     e.g. a 4052 mux would only require mux_0 and mux_1.
  44:../../Documents/Daisy/DaisyExamples/libdaisy//src/per/adc.h ****     Internal Callbacks handle the pin addressing.
  45:../../Documents/Daisy/DaisyExamples/libdaisy//src/per/adc.h ****     \param mux_channels must be 1-8
  46:../../Documents/Daisy/DaisyExamples/libdaisy//src/per/adc.h ****     \param mux_0 First mux pin
  47:../../Documents/Daisy/DaisyExamples/libdaisy//src/per/adc.h ****     \param mux_1 Second mux pin
  48:../../Documents/Daisy/DaisyExamples/libdaisy//src/per/adc.h ****     \param mux_2 Third mux pin
  49:../../Documents/Daisy/DaisyExamples/libdaisy//src/per/adc.h ****     \param adc_pin &
  50:../../Documents/Daisy/DaisyExamples/libdaisy//src/per/adc.h ****     */
  51:../../Documents/Daisy/DaisyExamples/libdaisy//src/per/adc.h ****     void InitMux(dsy_gpio_pin adc_pin,
  52:../../Documents/Daisy/DaisyExamples/libdaisy//src/per/adc.h ****                  size_t       mux_channels,
  53:../../Documents/Daisy/DaisyExamples/libdaisy//src/per/adc.h ****                  dsy_gpio_pin mux_0,
  54:../../Documents/Daisy/DaisyExamples/libdaisy//src/per/adc.h ****                  dsy_gpio_pin mux_1 = {DSY_GPIOX, 0},
  55:../../Documents/Daisy/DaisyExamples/libdaisy//src/per/adc.h ****                  dsy_gpio_pin mux_2 = {DSY_GPIOX, 0});
  56:../../Documents/Daisy/DaisyExamples/libdaisy//src/per/adc.h **** 
  57:../../Documents/Daisy/DaisyExamples/libdaisy//src/per/adc.h ****     dsy_gpio pin_;                   /**< & */
  58:../../Documents/Daisy/DaisyExamples/libdaisy//src/per/adc.h ****     dsy_gpio mux_pin_[MUX_SEL_LAST]; /**< & */
  59:../../Documents/Daisy/DaisyExamples/libdaisy//src/per/adc.h ****     uint8_t  mux_channels_;          /**< & */
  60:../../Documents/Daisy/DaisyExamples/libdaisy//src/per/adc.h **** };
  61:../../Documents/Daisy/DaisyExamples/libdaisy//src/per/adc.h **** 
  62:../../Documents/Daisy/DaisyExamples/libdaisy//src/per/adc.h **** /**
  63:../../Documents/Daisy/DaisyExamples/libdaisy//src/per/adc.h ****    Handler for analog to digital conversion
  64:../../Documents/Daisy/DaisyExamples/libdaisy//src/per/adc.h **** */
  65:../../Documents/Daisy/DaisyExamples/libdaisy//src/per/adc.h **** class AdcHandle
  66:../../Documents/Daisy/DaisyExamples/libdaisy//src/per/adc.h **** {
  67:../../Documents/Daisy/DaisyExamples/libdaisy//src/per/adc.h ****   public:
  68:../../Documents/Daisy/DaisyExamples/libdaisy//src/per/adc.h ****     /** Supported oversampling amounts */
  69:../../Documents/Daisy/DaisyExamples/libdaisy//src/per/adc.h ****     enum OverSampling
  70:../../Documents/Daisy/DaisyExamples/libdaisy//src/per/adc.h ****     {
  71:../../Documents/Daisy/DaisyExamples/libdaisy//src/per/adc.h ****         OVS_NONE, /**< & */
  72:../../Documents/Daisy/DaisyExamples/libdaisy//src/per/adc.h ****         OVS_4,    /**< & */
  73:../../Documents/Daisy/DaisyExamples/libdaisy//src/per/adc.h ****         OVS_8,    /**< & */
  74:../../Documents/Daisy/DaisyExamples/libdaisy//src/per/adc.h ****         OVS_16,   /**< & */
  75:../../Documents/Daisy/DaisyExamples/libdaisy//src/per/adc.h ****         OVS_32,   /**< & */
  76:../../Documents/Daisy/DaisyExamples/libdaisy//src/per/adc.h ****         OVS_64,   /**< & */
  77:../../Documents/Daisy/DaisyExamples/libdaisy//src/per/adc.h ****         OVS_128,  /**< & */
  78:../../Documents/Daisy/DaisyExamples/libdaisy//src/per/adc.h ****         OVS_256,  /**< & */
  79:../../Documents/Daisy/DaisyExamples/libdaisy//src/per/adc.h ****         OVS_512,  /**< & */
  80:../../Documents/Daisy/DaisyExamples/libdaisy//src/per/adc.h ****         OVS_1024, /**< & */
  81:../../Documents/Daisy/DaisyExamples/libdaisy//src/per/adc.h ****         OVS_LAST, /**< & */
  82:../../Documents/Daisy/DaisyExamples/libdaisy//src/per/adc.h ****     };
  83:../../Documents/Daisy/DaisyExamples/libdaisy//src/per/adc.h **** 
  84:../../Documents/Daisy/DaisyExamples/libdaisy//src/per/adc.h ****     AdcHandle() {}
  85:../../Documents/Daisy/DaisyExamples/libdaisy//src/per/adc.h ****     ~AdcHandle() {}
  50              		.loc 4 85 5 is_stmt 1 view .LVU5
  51              		.loc 4 85 5 is_stmt 0 view .LVU6
  52              	.LBE92:
  53              	.LBB93:
  54              	.LBI93:
  55              		.file 5 "../../Documents/Daisy/DaisyExamples/libdaisy//src/hid/audio.h"
   1:../../Documents/Daisy/DaisyExamples/libdaisy//src/hid/audio.h **** #ifndef DSY_AUDIO_H
   2:../../Documents/Daisy/DaisyExamples/libdaisy//src/hid/audio.h **** #define DSY_AUDIO_H /**< & */
   3:../../Documents/Daisy/DaisyExamples/libdaisy//src/hid/audio.h **** 
   4:../../Documents/Daisy/DaisyExamples/libdaisy//src/hid/audio.h **** #include "per/sai.h"
ARM GAS  /var/folders/j4/zsgv5hks61j070b3g480n1j40000gn/T//ccPhVAM6.s 			page 6


   5:../../Documents/Daisy/DaisyExamples/libdaisy//src/hid/audio.h **** 
   6:../../Documents/Daisy/DaisyExamples/libdaisy//src/hid/audio.h **** namespace daisy
   7:../../Documents/Daisy/DaisyExamples/libdaisy//src/hid/audio.h **** {
   8:../../Documents/Daisy/DaisyExamples/libdaisy//src/hid/audio.h **** class AudioHandle
   9:../../Documents/Daisy/DaisyExamples/libdaisy//src/hid/audio.h **** {
  10:../../Documents/Daisy/DaisyExamples/libdaisy//src/hid/audio.h ****   public:
  11:../../Documents/Daisy/DaisyExamples/libdaisy//src/hid/audio.h ****     /** Manually configurable details about the Audio Engine */
  12:../../Documents/Daisy/DaisyExamples/libdaisy//src/hid/audio.h ****     /** TODO: Figure out how to get samplerate in here. */
  13:../../Documents/Daisy/DaisyExamples/libdaisy//src/hid/audio.h ****     struct Config
  14:../../Documents/Daisy/DaisyExamples/libdaisy//src/hid/audio.h ****     {
  15:../../Documents/Daisy/DaisyExamples/libdaisy//src/hid/audio.h ****         size_t                        blocksize;
  16:../../Documents/Daisy/DaisyExamples/libdaisy//src/hid/audio.h ****         SaiHandle::Config::SampleRate samplerate;
  17:../../Documents/Daisy/DaisyExamples/libdaisy//src/hid/audio.h ****         float                         postgain;
  18:../../Documents/Daisy/DaisyExamples/libdaisy//src/hid/audio.h ****     };
  19:../../Documents/Daisy/DaisyExamples/libdaisy//src/hid/audio.h **** 
  20:../../Documents/Daisy/DaisyExamples/libdaisy//src/hid/audio.h ****     enum class Result
  21:../../Documents/Daisy/DaisyExamples/libdaisy//src/hid/audio.h ****     {
  22:../../Documents/Daisy/DaisyExamples/libdaisy//src/hid/audio.h ****         OK,
  23:../../Documents/Daisy/DaisyExamples/libdaisy//src/hid/audio.h ****         ERR,
  24:../../Documents/Daisy/DaisyExamples/libdaisy//src/hid/audio.h ****     };
  25:../../Documents/Daisy/DaisyExamples/libdaisy//src/hid/audio.h **** 
  26:../../Documents/Daisy/DaisyExamples/libdaisy//src/hid/audio.h ****     /** Non-Interleaving input buffer
  27:../../Documents/Daisy/DaisyExamples/libdaisy//src/hid/audio.h ****      * Buffer arranged by float[chn][sample] 
  28:../../Documents/Daisy/DaisyExamples/libdaisy//src/hid/audio.h ****      * const so that the user can't modify the input
  29:../../Documents/Daisy/DaisyExamples/libdaisy//src/hid/audio.h ****     */
  30:../../Documents/Daisy/DaisyExamples/libdaisy//src/hid/audio.h ****     typedef const float* const* InputBuffer;
  31:../../Documents/Daisy/DaisyExamples/libdaisy//src/hid/audio.h **** 
  32:../../Documents/Daisy/DaisyExamples/libdaisy//src/hid/audio.h ****     /** Non-Interleaving output buffer
  33:../../Documents/Daisy/DaisyExamples/libdaisy//src/hid/audio.h ****      * Arranged by float[chn][sample] 
  34:../../Documents/Daisy/DaisyExamples/libdaisy//src/hid/audio.h ****     */
  35:../../Documents/Daisy/DaisyExamples/libdaisy//src/hid/audio.h ****     typedef float** OutputBuffer;
  36:../../Documents/Daisy/DaisyExamples/libdaisy//src/hid/audio.h **** 
  37:../../Documents/Daisy/DaisyExamples/libdaisy//src/hid/audio.h ****     /** Type for a Non-Interleaving audio callback 
  38:../../Documents/Daisy/DaisyExamples/libdaisy//src/hid/audio.h ****    * Non-Interleaving audio callbacks in daisy will be of this type
  39:../../Documents/Daisy/DaisyExamples/libdaisy//src/hid/audio.h ****   */
  40:../../Documents/Daisy/DaisyExamples/libdaisy//src/hid/audio.h ****     typedef void (*AudioCallback)(InputBuffer  in,
  41:../../Documents/Daisy/DaisyExamples/libdaisy//src/hid/audio.h ****                                   OutputBuffer out,
  42:../../Documents/Daisy/DaisyExamples/libdaisy//src/hid/audio.h ****                                   size_t       size);
  43:../../Documents/Daisy/DaisyExamples/libdaisy//src/hid/audio.h **** 
  44:../../Documents/Daisy/DaisyExamples/libdaisy//src/hid/audio.h ****     /** Interleaving Input buffer
  45:../../Documents/Daisy/DaisyExamples/libdaisy//src/hid/audio.h ****      ** audio is prepared as { L0, R0, L1, R1, . . . LN, RN }]
  46:../../Documents/Daisy/DaisyExamples/libdaisy//src/hid/audio.h ****      ** this is const, as the user shouldn't modify it
  47:../../Documents/Daisy/DaisyExamples/libdaisy//src/hid/audio.h ****     */
  48:../../Documents/Daisy/DaisyExamples/libdaisy//src/hid/audio.h ****     typedef const float* InterleavingInputBuffer;
  49:../../Documents/Daisy/DaisyExamples/libdaisy//src/hid/audio.h **** 
  50:../../Documents/Daisy/DaisyExamples/libdaisy//src/hid/audio.h ****     /** Interleaving Output buffer 
  51:../../Documents/Daisy/DaisyExamples/libdaisy//src/hid/audio.h ****      ** audio is prepared as { L0, R0, L1, R1, . . . LN, RN }
  52:../../Documents/Daisy/DaisyExamples/libdaisy//src/hid/audio.h ****     */
  53:../../Documents/Daisy/DaisyExamples/libdaisy//src/hid/audio.h ****     typedef float* InterleavingOutputBuffer;
  54:../../Documents/Daisy/DaisyExamples/libdaisy//src/hid/audio.h **** 
  55:../../Documents/Daisy/DaisyExamples/libdaisy//src/hid/audio.h ****     /** Interleaving Audio Callback 
  56:../../Documents/Daisy/DaisyExamples/libdaisy//src/hid/audio.h ****    * Interleaving audio callbacks in daisy must be of this type
  57:../../Documents/Daisy/DaisyExamples/libdaisy//src/hid/audio.h ****   */
  58:../../Documents/Daisy/DaisyExamples/libdaisy//src/hid/audio.h ****     typedef void (*InterleavingAudioCallback)(InterleavingInputBuffer  in,
  59:../../Documents/Daisy/DaisyExamples/libdaisy//src/hid/audio.h ****                                               InterleavingOutputBuffer out,
  60:../../Documents/Daisy/DaisyExamples/libdaisy//src/hid/audio.h ****                                               size_t                   size);
  61:../../Documents/Daisy/DaisyExamples/libdaisy//src/hid/audio.h **** 
ARM GAS  /var/folders/j4/zsgv5hks61j070b3g480n1j40000gn/T//ccPhVAM6.s 			page 7


  62:../../Documents/Daisy/DaisyExamples/libdaisy//src/hid/audio.h ****     AudioHandle() : pimpl_(nullptr) {}
  63:../../Documents/Daisy/DaisyExamples/libdaisy//src/hid/audio.h ****     ~AudioHandle() {}
  56              		.loc 5 63 5 is_stmt 1 view .LVU7
  57              		.loc 5 63 5 is_stmt 0 view .LVU8
  58              	.LBE93:
  59              		.loc 1 22 19 view .LVU9
  60 0000 7047     		bx	lr
  61              		.cfi_endproc
  62              	.LFE2040:
  64              		.weak	_ZN5daisy9DaisySeedD1Ev
  65              		.thumb_set _ZN5daisy9DaisySeedD1Ev,_ZN5daisy9DaisySeedD2Ev
  66 0002 00BF     		.section	.text.__tcf_0,"ax",%progbits
  67              		.align	1
  68              		.p2align 2,,3
  69              		.syntax unified
  70              		.thumb
  71              		.thumb_func
  73              	__tcf_0:
  74              	.LFB4831:
  75              		.file 6 "DaisyDrone.cpp"
   1:DaisyDrone.cpp **** #include "daisy_seed.h"
   2:DaisyDrone.cpp **** #include "daisysp.h"
   3:DaisyDrone.cpp **** 
   4:DaisyDrone.cpp **** using namespace daisy;
   5:DaisyDrone.cpp **** using namespace daisysp;
   6:DaisyDrone.cpp **** 
   7:DaisyDrone.cpp **** DaisySeed hw;
   8:DaisyDrone.cpp **** 
   9:DaisyDrone.cpp **** const int NUM_TONES(2);
  10:DaisyDrone.cpp **** const int pot_pins[NUM_TONES] = { 15, 16 };
  11:DaisyDrone.cpp **** Oscillator oscillators[NUM_TONES];
  76              		.loc 6 11 12 is_stmt 1 view -0
  77              		.cfi_startproc
  78              		@ args = 0, pretend = 0, frame = 0
  79              		@ frame_needed = 0, uses_anonymous_args = 0
  80              		@ link register save eliminated.
  81              		.loc 6 11 12 is_stmt 0 view .LVU11
  82 0000 7047     		bx	lr
  83              		.cfi_endproc
  84              	.LFE4831:
  86 0002 00BF     		.section	.text._Z14audio_callbackPKPKfPPfj,"ax",%progbits
  87              		.align	1
  88              		.p2align 2,,3
  89              		.global	_Z14audio_callbackPKPKfPPfj
  90              		.syntax unified
  91              		.thumb
  92              		.thumb_func
  94              	_Z14audio_callbackPKPKfPPfj:
  95              	.LVL1:
  96              	.LFB4268:
  12:DaisyDrone.cpp **** 
  13:DaisyDrone.cpp **** 
  14:DaisyDrone.cpp **** void audio_callback(AudioHandle::InputBuffer in, AudioHandle::OutputBuffer out, size_t size)
  15:DaisyDrone.cpp **** {
  97              		.loc 6 15 1 is_stmt 1 view -0
  98              		.cfi_startproc
  99              		@ args = 0, pretend = 0, frame = 0
ARM GAS  /var/folders/j4/zsgv5hks61j070b3g480n1j40000gn/T//ccPhVAM6.s 			page 8


 100              		@ frame_needed = 0, uses_anonymous_args = 0
  16:DaisyDrone.cpp **** 	for (size_t i = 0; i < size; i++)
 101              		.loc 6 16 2 view .LVU13
 102              	.LBB94:
 103              		.loc 6 16 23 view .LVU14
 104 0000 2AB3     		cbz	r2, .L12
 105              	.LBE94:
  15:DaisyDrone.cpp **** 	for (size_t i = 0; i < size; i++)
 106              		.loc 6 15 1 is_stmt 0 view .LVU15
 107 0002 70B5     		push	{r4, r5, r6, lr}
 108              		.cfi_def_cfa_offset 16
 109              		.cfi_offset 4, -16
 110              		.cfi_offset 5, -12
 111              		.cfi_offset 6, -8
 112              		.cfi_offset 14, -4
 113 0004 0D46     		mov	r5, r1
 114 0006 1646     		mov	r6, r2
 115              	.LBB100:
 116              		.loc 6 16 14 view .LVU16
 117 0008 0024     		movs	r4, #0
 118              	.LBE100:
  15:DaisyDrone.cpp **** 	for (size_t i = 0; i < size; i++)
 119              		.loc 6 15 1 view .LVU17
 120 000a 2DED028B 		vpush.64	{d8}
 121              		.cfi_def_cfa_offset 24
 122              		.cfi_offset 80, -24
 123              		.cfi_offset 81, -20
 124              	.LVL2:
 125              	.L6:
 126              	.LBB101:
 127              	.LBB95:
 128              	.LBB96:
  17:DaisyDrone.cpp **** 	{
  18:DaisyDrone.cpp **** 		float osc_out = 0.0f;
  19:DaisyDrone.cpp **** 		for( int o = 0; o < NUM_TONES; ++o )
 129              		.loc 6 19 21 is_stmt 1 view .LVU18
  20:DaisyDrone.cpp **** 		{
  21:DaisyDrone.cpp **** 			osc_out += oscillators[o].Process();
 130              		.loc 6 21 4 view .LVU19
 131              		.loc 6 21 12 is_stmt 0 view .LVU20
 132 000e 9FED108A 		vldr.32	s16, .L15
 133              		.loc 6 21 37 view .LVU21
 134 0012 1048     		ldr	r0, .L15+4
 135 0014 FFF7FEFF 		bl	_ZN7daisysp10Oscillator7ProcessEv
 136              	.LVL3:
 137              		.loc 6 21 12 view .LVU22
 138 0018 30EE088A 		vadd.f32	s16, s0, s16
 139              	.LVL4:
  19:DaisyDrone.cpp **** 		{
 140              		.loc 6 19 3 is_stmt 1 view .LVU23
  19:DaisyDrone.cpp **** 		{
 141              		.loc 6 19 21 view .LVU24
 142              		.loc 6 21 4 view .LVU25
 143              		.loc 6 21 37 is_stmt 0 view .LVU26
 144 001c 0E48     		ldr	r0, .L15+8
 145 001e FFF7FEFF 		bl	_ZN7daisysp10Oscillator7ProcessEv
 146              	.LVL5:
ARM GAS  /var/folders/j4/zsgv5hks61j070b3g480n1j40000gn/T//ccPhVAM6.s 			page 9


 147              	.LBE96:
  22:DaisyDrone.cpp **** 		}
  23:DaisyDrone.cpp **** 		osc_out /= NUM_TONES;
 148              		.loc 6 23 11 view .LVU27
 149 0022 F6EE007A 		vmov.f32	s15, #5.0e-1
 150              	.LBB97:
  21:DaisyDrone.cpp **** 		}
 151              		.loc 6 21 12 view .LVU28
 152 0026 38EE000A 		vadd.f32	s0, s16, s0
 153              	.LVL6:
  19:DaisyDrone.cpp **** 		{
 154              		.loc 6 19 3 is_stmt 1 view .LVU29
  19:DaisyDrone.cpp **** 		{
 155              		.loc 6 19 21 view .LVU30
 156              	.LBE97:
 157              		.loc 6 23 3 view .LVU31
  24:DaisyDrone.cpp **** 
  25:DaisyDrone.cpp **** 		out[0][i] = osc_out;
  26:DaisyDrone.cpp **** 		out[1][i] = osc_out;
 158              		.loc 6 26 13 is_stmt 0 view .LVU32
 159 002a D5E90003 		ldrd	r0, r3, [r5]
  23:DaisyDrone.cpp **** 
 160              		.loc 6 23 11 view .LVU33
 161 002e 20EE270A 		vmul.f32	s0, s0, s15
 162              	.LVL7:
  25:DaisyDrone.cpp **** 		out[1][i] = osc_out;
 163              		.loc 6 25 3 is_stmt 1 view .LVU34
  25:DaisyDrone.cpp **** 		out[1][i] = osc_out;
 164              		.loc 6 25 13 is_stmt 0 view .LVU35
 165 0032 00EB8400 		add	r0, r0, r4, lsl #2
 166              		.loc 6 26 13 view .LVU36
 167 0036 03EB8403 		add	r3, r3, r4, lsl #2
 168              	.LBE95:
  16:DaisyDrone.cpp **** 	{
 169              		.loc 6 16 2 view .LVU37
 170 003a 0134     		adds	r4, r4, #1
 171              	.LVL8:
 172              	.LBB98:
  25:DaisyDrone.cpp **** 		out[1][i] = osc_out;
 173              		.loc 6 25 13 view .LVU38
 174 003c 80ED000A 		vstr.32	s0, [r0]
 175              		.loc 6 26 3 is_stmt 1 view .LVU39
 176              	.LBE98:
  16:DaisyDrone.cpp **** 	{
 177              		.loc 6 16 23 is_stmt 0 view .LVU40
 178 0040 A642     		cmp	r6, r4
 179              	.LBB99:
 180              		.loc 6 26 13 view .LVU41
 181 0042 83ED000A 		vstr.32	s0, [r3]
 182              	.LBE99:
  16:DaisyDrone.cpp **** 	{
 183              		.loc 6 16 2 is_stmt 1 view .LVU42
 184              	.LVL9:
  16:DaisyDrone.cpp **** 	{
 185              		.loc 6 16 23 view .LVU43
 186 0046 E2D1     		bne	.L6
 187              	.LBE101:
ARM GAS  /var/folders/j4/zsgv5hks61j070b3g480n1j40000gn/T//ccPhVAM6.s 			page 10


  27:DaisyDrone.cpp **** 	}
  28:DaisyDrone.cpp **** }
 188              		.loc 6 28 1 is_stmt 0 view .LVU44
 189 0048 BDEC028B 		vldm	sp!, {d8}
 190              		.cfi_restore 80
 191              		.cfi_restore 81
 192              		.cfi_def_cfa_offset 16
 193 004c 70BD     		pop	{r4, r5, r6, pc}
 194              	.LVL10:
 195              	.L12:
 196              		.cfi_def_cfa_offset 0
 197              		.cfi_restore 4
 198              		.cfi_restore 5
 199              		.cfi_restore 6
 200              		.cfi_restore 14
 201              		.loc 6 28 1 view .LVU45
 202 004e 7047     		bx	lr
 203              	.L16:
 204              		.align	2
 205              	.L15:
 206 0050 00000000 		.word	0
 207 0054 00000000 		.word	.LANCHOR0
 208 0058 28000000 		.word	.LANCHOR0+40
 209              		.cfi_endproc
 210              	.LFE4268:
 212              		.section	.text._Z8init_adcv,"ax",%progbits
 213              		.align	1
 214              		.p2align 2,,3
 215              		.global	_Z8init_adcv
 216              		.syntax unified
 217              		.thumb
 218              		.thumb_func
 220              	_Z8init_adcv:
 221              	.LFB4269:
  29:DaisyDrone.cpp **** 
  30:DaisyDrone.cpp **** void init_adc()
  31:DaisyDrone.cpp **** {
 222              		.loc 6 31 1 is_stmt 1 view -0
 223              		.cfi_startproc
 224              		@ args = 0, pretend = 0, frame = 40
 225              		@ frame_needed = 0, uses_anonymous_args = 0
  32:DaisyDrone.cpp **** 	AdcChannelConfig adc_config[NUM_TONES];
 226              		.loc 6 32 2 view .LVU47
  33:DaisyDrone.cpp **** 	for( int t = 0; t < NUM_TONES; ++t )
 227              		.loc 6 33 2 view .LVU48
 228              	.LVL11:
 229              	.LBB102:
 230              		.loc 6 33 20 view .LVU49
  34:DaisyDrone.cpp **** 	{
  35:DaisyDrone.cpp **** 		adc_config[t].InitSingle(hw.GetPin(pot_pins[t]));
 231              		.loc 6 35 3 view .LVU50
 232              	.LBE102:
  31:DaisyDrone.cpp **** 	AdcChannelConfig adc_config[NUM_TONES];
 233              		.loc 6 31 1 is_stmt 0 view .LVU51
 234 0000 10B5     		push	{r4, lr}
 235              		.cfi_def_cfa_offset 8
 236              		.cfi_offset 4, -8
ARM GAS  /var/folders/j4/zsgv5hks61j070b3g480n1j40000gn/T//ccPhVAM6.s 			page 11


 237              		.cfi_offset 14, -4
 238              	.LBB103:
 239              		.loc 6 35 27 view .LVU52
 240 0002 0F20     		movs	r0, #15
 241              	.LBE103:
  31:DaisyDrone.cpp **** 	AdcChannelConfig adc_config[NUM_TONES];
 242              		.loc 6 31 1 view .LVU53
 243 0004 8AB0     		sub	sp, sp, #40
 244              		.cfi_def_cfa_offset 48
 245              	.LBB104:
 246              		.loc 6 35 27 view .LVU54
 247 0006 FFF7FEFF 		bl	_ZN5daisy9DaisySeed6GetPinEh
 248              	.LVL12:
 249 000a 0346     		mov	r3, r0	@ movhi
 250 000c 01A8     		add	r0, sp, #4
 251              	.LBE104:
  36:DaisyDrone.cpp **** 	}
  37:DaisyDrone.cpp **** 	hw.adc.Init(adc_config, NUM_TONES);
 252              		.loc 6 37 13 view .LVU55
 253 000e 0E4C     		ldr	r4, .L19
 254              	.LBB105:
  35:DaisyDrone.cpp **** 	}
 255              		.loc 6 35 27 view .LVU56
 256 0010 ADF80030 		strh	r3, [sp]	@ movhi
 257 0014 0099     		ldr	r1, [sp]
 258 0016 FFF7FEFF 		bl	_ZN5daisy16AdcChannelConfig10InitSingleE12dsy_gpio_pin
 259              	.LVL13:
  33:DaisyDrone.cpp **** 	{
 260              		.loc 6 33 2 is_stmt 1 view .LVU57
  33:DaisyDrone.cpp **** 	{
 261              		.loc 6 33 20 view .LVU58
  35:DaisyDrone.cpp **** 	}
 262              		.loc 6 35 3 view .LVU59
  35:DaisyDrone.cpp **** 	}
 263              		.loc 6 35 27 is_stmt 0 view .LVU60
 264 001a 1020     		movs	r0, #16
 265 001c FFF7FEFF 		bl	_ZN5daisy9DaisySeed6GetPinEh
 266              	.LVL14:
 267 0020 0346     		mov	r3, r0	@ movhi
 268 0022 0DF11500 		add	r0, sp, #21
 269 0026 ADF80030 		strh	r3, [sp]	@ movhi
 270 002a 0099     		ldr	r1, [sp]
 271 002c FFF7FEFF 		bl	_ZN5daisy16AdcChannelConfig10InitSingleE12dsy_gpio_pin
 272              	.LVL15:
  33:DaisyDrone.cpp **** 	{
 273              		.loc 6 33 2 is_stmt 1 view .LVU61
  33:DaisyDrone.cpp **** 	{
 274              		.loc 6 33 20 view .LVU62
 275              	.LBE105:
 276              		.loc 6 37 2 view .LVU63
 277              		.loc 6 37 13 is_stmt 0 view .LVU64
 278 0030 0423     		movs	r3, #4
 279 0032 0222     		movs	r2, #2
 280 0034 2046     		mov	r0, r4
 281 0036 0DEB0301 		add	r1, sp, r3
 282 003a FFF7FEFF 		bl	_ZN5daisy9AdcHandle4InitEPNS_16AdcChannelConfigEjNS0_12OverSamplingE
 283              	.LVL16:
ARM GAS  /var/folders/j4/zsgv5hks61j070b3g480n1j40000gn/T//ccPhVAM6.s 			page 12


  38:DaisyDrone.cpp ****     hw.adc.Start();
 284              		.loc 6 38 5 is_stmt 1 view .LVU65
 285              		.loc 6 38 17 is_stmt 0 view .LVU66
 286 003e 2046     		mov	r0, r4
 287 0040 FFF7FEFF 		bl	_ZN5daisy9AdcHandle5StartEv
 288              	.LVL17:
  39:DaisyDrone.cpp **** }
 289              		.loc 6 39 1 view .LVU67
 290 0044 0AB0     		add	sp, sp, #40
 291              		.cfi_def_cfa_offset 8
 292              		@ sp needed
 293 0046 10BD     		pop	{r4, pc}
 294              	.L20:
 295              		.align	2
 296              	.L19:
 297 0048 18000000 		.word	.LANCHOR1+24
 298              		.cfi_endproc
 299              	.LFE4269:
 301              		.section	.rodata._Z9set_tonesf.str1.4,"aMS",%progbits,1
 302              		.align	2
 303              	.LC1:
 304 0000 42617365 		.ascii	"Base Frequency %d\000"
 304      20467265 
 304      7175656E 
 304      63792025 
 304      6400
 305 0012 0000     		.align	2
 306              	.LC2:
 307 0014 25642025 		.ascii	"%d %d %d\000"
 307      64202564 
 307      00
 308              		.section	.text._Z9set_tonesf,"ax",%progbits
 309              		.align	1
 310              		.p2align 2,,3
 311              		.global	_Z9set_tonesf
 312              		.syntax unified
 313              		.thumb
 314              		.thumb_func
 316              	_Z9set_tonesf:
 317              	.LVL18:
 318              	.LFB4270:
  40:DaisyDrone.cpp **** 
  41:DaisyDrone.cpp **** void set_tones(float base_frequency)
  42:DaisyDrone.cpp **** {
 319              		.loc 6 42 1 is_stmt 1 view -0
 320              		.cfi_startproc
 321              		@ args = 0, pretend = 0, frame = 16
 322              		@ frame_needed = 0, uses_anonymous_args = 0
  43:DaisyDrone.cpp **** 	hw.PrintLine("Base Frequency %d", int(base_frequency * 100));
 323              		.loc 6 43 2 view .LVU69
 324              		.loc 6 43 55 is_stmt 0 view .LVU70
 325 0000 DFED257A 		vldr.32	s15, .L25
 326              	.LBB106:
 327              	.LBB107:
  23:../../Documents/Daisy/DaisyExamples/libdaisy//src/daisy_seed.h **** 
  24:../../Documents/Daisy/DaisyExamples/libdaisy//src/daisy_seed.h ****     /** 
  25:../../Documents/Daisy/DaisyExamples/libdaisy//src/daisy_seed.h ****     Configures the settings for all internal peripherals,
ARM GAS  /var/folders/j4/zsgv5hks61j070b3g480n1j40000gn/T//ccPhVAM6.s 			page 13


  26:../../Documents/Daisy/DaisyExamples/libdaisy//src/daisy_seed.h ****     but does not initialize them.
  27:../../Documents/Daisy/DaisyExamples/libdaisy//src/daisy_seed.h ****     This allows for modification of the configuration
  28:../../Documents/Daisy/DaisyExamples/libdaisy//src/daisy_seed.h ****     handles prior to initialization.
  29:../../Documents/Daisy/DaisyExamples/libdaisy//src/daisy_seed.h ****     */
  30:../../Documents/Daisy/DaisyExamples/libdaisy//src/daisy_seed.h **** 
  31:../../Documents/Daisy/DaisyExamples/libdaisy//src/daisy_seed.h ****     //Defaults listed below:
  32:../../Documents/Daisy/DaisyExamples/libdaisy//src/daisy_seed.h ****     //TODO: Add defaults
  33:../../Documents/Daisy/DaisyExamples/libdaisy//src/daisy_seed.h **** 
  34:../../Documents/Daisy/DaisyExamples/libdaisy//src/daisy_seed.h ****     /** & */
  35:../../Documents/Daisy/DaisyExamples/libdaisy//src/daisy_seed.h ****     void Configure();
  36:../../Documents/Daisy/DaisyExamples/libdaisy//src/daisy_seed.h **** 
  37:../../Documents/Daisy/DaisyExamples/libdaisy//src/daisy_seed.h ****     /** 
  38:../../Documents/Daisy/DaisyExamples/libdaisy//src/daisy_seed.h ****     Initializes the Daisy Seed and the following peripherals:
  39:../../Documents/Daisy/DaisyExamples/libdaisy//src/daisy_seed.h ****     SDRAM, QSPI, 24-bit 48kHz Audio via AK4556, Internal USB,
  40:../../Documents/Daisy/DaisyExamples/libdaisy//src/daisy_seed.h ****     as well as the built-in LED and Testpoint.
  41:../../Documents/Daisy/DaisyExamples/libdaisy//src/daisy_seed.h **** 
  42:../../Documents/Daisy/DaisyExamples/libdaisy//src/daisy_seed.h ****     ADCs, DACs, and other special peripherals (such as I2C, SPI, etc.)
  43:../../Documents/Daisy/DaisyExamples/libdaisy//src/daisy_seed.h ****     can be initialized using their specific initializers within libdaisy
  44:../../Documents/Daisy/DaisyExamples/libdaisy//src/daisy_seed.h ****     for a specific application.
  45:../../Documents/Daisy/DaisyExamples/libdaisy//src/daisy_seed.h ****     */
  46:../../Documents/Daisy/DaisyExamples/libdaisy//src/daisy_seed.h ****     void Init(bool boost = false);
  47:../../Documents/Daisy/DaisyExamples/libdaisy//src/daisy_seed.h **** 
  48:../../Documents/Daisy/DaisyExamples/libdaisy//src/daisy_seed.h ****     /** 
  49:../../Documents/Daisy/DaisyExamples/libdaisy//src/daisy_seed.h ****     Deinitializes all peripherals automatically handled by `Init`.
  50:../../Documents/Daisy/DaisyExamples/libdaisy//src/daisy_seed.h ****     */
  51:../../Documents/Daisy/DaisyExamples/libdaisy//src/daisy_seed.h ****     void DeInit();
  52:../../Documents/Daisy/DaisyExamples/libdaisy//src/daisy_seed.h **** 
  53:../../Documents/Daisy/DaisyExamples/libdaisy//src/daisy_seed.h ****     /** 
  54:../../Documents/Daisy/DaisyExamples/libdaisy//src/daisy_seed.h ****     Wait some ms before going on.
  55:../../Documents/Daisy/DaisyExamples/libdaisy//src/daisy_seed.h ****     \param del Delay time in ms.
  56:../../Documents/Daisy/DaisyExamples/libdaisy//src/daisy_seed.h ****     */
  57:../../Documents/Daisy/DaisyExamples/libdaisy//src/daisy_seed.h ****     void DelayMs(size_t del);
  58:../../Documents/Daisy/DaisyExamples/libdaisy//src/daisy_seed.h **** 
  59:../../Documents/Daisy/DaisyExamples/libdaisy//src/daisy_seed.h ****     /** 
  60:../../Documents/Daisy/DaisyExamples/libdaisy//src/daisy_seed.h ****     Returns the gpio_pin corresponding to the index 0-31.
  61:../../Documents/Daisy/DaisyExamples/libdaisy//src/daisy_seed.h ****     For the given GPIO on the Daisy Seed (labeled 1-32 in docs).
  62:../../Documents/Daisy/DaisyExamples/libdaisy//src/daisy_seed.h ****     */
  63:../../Documents/Daisy/DaisyExamples/libdaisy//src/daisy_seed.h ****     static dsy_gpio_pin GetPin(uint8_t pin_idx);
  64:../../Documents/Daisy/DaisyExamples/libdaisy//src/daisy_seed.h **** 
  65:../../Documents/Daisy/DaisyExamples/libdaisy//src/daisy_seed.h ****     /** Begins the audio for the seeds builtin audio.
  66:../../Documents/Daisy/DaisyExamples/libdaisy//src/daisy_seed.h ****     the specified callback will get called whenever
  67:../../Documents/Daisy/DaisyExamples/libdaisy//src/daisy_seed.h ****     new data is ready to be prepared.
  68:../../Documents/Daisy/DaisyExamples/libdaisy//src/daisy_seed.h ****     */
  69:../../Documents/Daisy/DaisyExamples/libdaisy//src/daisy_seed.h ****     void StartAudio(AudioHandle::InterleavingAudioCallback cb);
  70:../../Documents/Daisy/DaisyExamples/libdaisy//src/daisy_seed.h **** 
  71:../../Documents/Daisy/DaisyExamples/libdaisy//src/daisy_seed.h ****     /** Begins the audio for the seeds builtin audio.
  72:../../Documents/Daisy/DaisyExamples/libdaisy//src/daisy_seed.h ****     the specified callback will get called whenever
  73:../../Documents/Daisy/DaisyExamples/libdaisy//src/daisy_seed.h ****     new data is ready to be prepared.
  74:../../Documents/Daisy/DaisyExamples/libdaisy//src/daisy_seed.h ****     This will use the newer non-interleaved callback.
  75:../../Documents/Daisy/DaisyExamples/libdaisy//src/daisy_seed.h ****     */
  76:../../Documents/Daisy/DaisyExamples/libdaisy//src/daisy_seed.h ****     void StartAudio(AudioHandle::AudioCallback cb);
  77:../../Documents/Daisy/DaisyExamples/libdaisy//src/daisy_seed.h **** 
  78:../../Documents/Daisy/DaisyExamples/libdaisy//src/daisy_seed.h ****     /** Changes to a new interleaved callback
  79:../../Documents/Daisy/DaisyExamples/libdaisy//src/daisy_seed.h ****      */
  80:../../Documents/Daisy/DaisyExamples/libdaisy//src/daisy_seed.h ****     void ChangeAudioCallback(AudioHandle::InterleavingAudioCallback cb);
  81:../../Documents/Daisy/DaisyExamples/libdaisy//src/daisy_seed.h **** 
  82:../../Documents/Daisy/DaisyExamples/libdaisy//src/daisy_seed.h ****     /** Changes to a new multichannel callback
ARM GAS  /var/folders/j4/zsgv5hks61j070b3g480n1j40000gn/T//ccPhVAM6.s 			page 14


  83:../../Documents/Daisy/DaisyExamples/libdaisy//src/daisy_seed.h ****      */
  84:../../Documents/Daisy/DaisyExamples/libdaisy//src/daisy_seed.h ****     void ChangeAudioCallback(AudioHandle::AudioCallback cb);
  85:../../Documents/Daisy/DaisyExamples/libdaisy//src/daisy_seed.h **** 
  86:../../Documents/Daisy/DaisyExamples/libdaisy//src/daisy_seed.h ****     /** Stops the audio if it is running. */
  87:../../Documents/Daisy/DaisyExamples/libdaisy//src/daisy_seed.h ****     void StopAudio();
  88:../../Documents/Daisy/DaisyExamples/libdaisy//src/daisy_seed.h **** 
  89:../../Documents/Daisy/DaisyExamples/libdaisy//src/daisy_seed.h ****     /** Updates the Audio Sample Rate, and reinitializes.
  90:../../Documents/Daisy/DaisyExamples/libdaisy//src/daisy_seed.h ****      ** Audio must be stopped for this to work.
  91:../../Documents/Daisy/DaisyExamples/libdaisy//src/daisy_seed.h ****      */
  92:../../Documents/Daisy/DaisyExamples/libdaisy//src/daisy_seed.h ****     void SetAudioSampleRate(SaiHandle::Config::SampleRate samplerate);
  93:../../Documents/Daisy/DaisyExamples/libdaisy//src/daisy_seed.h **** 
  94:../../Documents/Daisy/DaisyExamples/libdaisy//src/daisy_seed.h ****     /** Returns the audio sample rate in Hz as a floating point number.
  95:../../Documents/Daisy/DaisyExamples/libdaisy//src/daisy_seed.h ****      */
  96:../../Documents/Daisy/DaisyExamples/libdaisy//src/daisy_seed.h ****     float AudioSampleRate();
  97:../../Documents/Daisy/DaisyExamples/libdaisy//src/daisy_seed.h **** 
  98:../../Documents/Daisy/DaisyExamples/libdaisy//src/daisy_seed.h ****     /** Sets the number of samples processed per channel by the audio callback.
  99:../../Documents/Daisy/DaisyExamples/libdaisy//src/daisy_seed.h ****      */
 100:../../Documents/Daisy/DaisyExamples/libdaisy//src/daisy_seed.h ****     void SetAudioBlockSize(size_t blocksize);
 101:../../Documents/Daisy/DaisyExamples/libdaisy//src/daisy_seed.h **** 
 102:../../Documents/Daisy/DaisyExamples/libdaisy//src/daisy_seed.h ****     /** Returns the number of samples per channel in a block of audio. */
 103:../../Documents/Daisy/DaisyExamples/libdaisy//src/daisy_seed.h ****     size_t AudioBlockSize();
 104:../../Documents/Daisy/DaisyExamples/libdaisy//src/daisy_seed.h **** 
 105:../../Documents/Daisy/DaisyExamples/libdaisy//src/daisy_seed.h ****     /** Returns the rate in Hz that the Audio callback is called */
 106:../../Documents/Daisy/DaisyExamples/libdaisy//src/daisy_seed.h ****     float AudioCallbackRate() const;
 107:../../Documents/Daisy/DaisyExamples/libdaisy//src/daisy_seed.h **** 
 108:../../Documents/Daisy/DaisyExamples/libdaisy//src/daisy_seed.h ****     /** Sets the state of the built in LED
 109:../../Documents/Daisy/DaisyExamples/libdaisy//src/daisy_seed.h ****      */
 110:../../Documents/Daisy/DaisyExamples/libdaisy//src/daisy_seed.h ****     void SetLed(bool state);
 111:../../Documents/Daisy/DaisyExamples/libdaisy//src/daisy_seed.h **** 
 112:../../Documents/Daisy/DaisyExamples/libdaisy//src/daisy_seed.h ****     /** Sets the state of the test point near pin 10
 113:../../Documents/Daisy/DaisyExamples/libdaisy//src/daisy_seed.h ****      */
 114:../../Documents/Daisy/DaisyExamples/libdaisy//src/daisy_seed.h ****     void SetTestPoint(bool state);
 115:../../Documents/Daisy/DaisyExamples/libdaisy//src/daisy_seed.h **** 
 116:../../Documents/Daisy/DaisyExamples/libdaisy//src/daisy_seed.h ****     /** Print formatted debug log message
 117:../../Documents/Daisy/DaisyExamples/libdaisy//src/daisy_seed.h ****      */
 118:../../Documents/Daisy/DaisyExamples/libdaisy//src/daisy_seed.h ****     template <typename... VA>
 119:../../Documents/Daisy/DaisyExamples/libdaisy//src/daisy_seed.h ****     static void Print(const char* format, VA... va)
 120:../../Documents/Daisy/DaisyExamples/libdaisy//src/daisy_seed.h ****     {
 121:../../Documents/Daisy/DaisyExamples/libdaisy//src/daisy_seed.h ****         Log::Print(format, va...);
 122:../../Documents/Daisy/DaisyExamples/libdaisy//src/daisy_seed.h ****     }
 123:../../Documents/Daisy/DaisyExamples/libdaisy//src/daisy_seed.h **** 
 124:../../Documents/Daisy/DaisyExamples/libdaisy//src/daisy_seed.h ****     /** Print formatted debug log message with automatic line termination
 125:../../Documents/Daisy/DaisyExamples/libdaisy//src/daisy_seed.h ****     */
 126:../../Documents/Daisy/DaisyExamples/libdaisy//src/daisy_seed.h ****     template <typename... VA>
 127:../../Documents/Daisy/DaisyExamples/libdaisy//src/daisy_seed.h ****     static void PrintLine(const char* format, VA... va)
 128:../../Documents/Daisy/DaisyExamples/libdaisy//src/daisy_seed.h ****     {
 129:../../Documents/Daisy/DaisyExamples/libdaisy//src/daisy_seed.h ****         Log::PrintLine(format, va...);
 328              		.loc 1 129 23 view .LVU71
 329 0004 2548     		ldr	r0, .L25+4
 330              	.LBE107:
 331              	.LBE106:
 332              		.loc 6 43 55 view .LVU72
 333 0006 60EE277A 		vmul.f32	s15, s0, s15
  42:DaisyDrone.cpp **** 	hw.PrintLine("Base Frequency %d", int(base_frequency * 100));
 334              		.loc 6 42 1 view .LVU73
 335 000a F0B5     		push	{r4, r5, r6, r7, lr}
 336              		.cfi_def_cfa_offset 20
ARM GAS  /var/folders/j4/zsgv5hks61j070b3g480n1j40000gn/T//ccPhVAM6.s 			page 15


 337              		.cfi_offset 4, -20
 338              		.cfi_offset 5, -16
 339              		.cfi_offset 6, -12
 340              		.cfi_offset 7, -8
 341              		.cfi_offset 14, -4
 342              	.LBB111:
 343              	.LBB108:
 344              		.loc 1 129 23 view .LVU74
 345 000c FDEEE77A 		vcvt.s32.f32	s15, s15
 346 0010 234D     		ldr	r5, .L25+8
 347              	.LBE108:
 348              	.LBE111:
  42:DaisyDrone.cpp **** 	hw.PrintLine("Base Frequency %d", int(base_frequency * 100));
 349              		.loc 6 42 1 view .LVU75
 350 0012 2DED048B 		vpush.64	{d8, d9}
 351              		.cfi_def_cfa_offset 36
 352              		.cfi_offset 80, -36
 353              		.cfi_offset 81, -32
 354              		.cfi_offset 82, -28
 355              		.cfi_offset 83, -24
 356              	.LBB112:
 357              	.LBB109:
 358              		.loc 1 129 23 view .LVU76
 359 0016 17EE901A 		vmov	r1, s15	@ int
 360              	.LBE109:
 361              	.LBE112:
  42:DaisyDrone.cpp **** 	hw.PrintLine("Base Frequency %d", int(base_frequency * 100));
 362              		.loc 6 42 1 view .LVU77
 363 001a 85B0     		sub	sp, sp, #20
 364              		.cfi_def_cfa_offset 56
  42:DaisyDrone.cpp **** 	hw.PrintLine("Base Frequency %d", int(base_frequency * 100));
 365              		.loc 6 42 1 view .LVU78
 366 001c B0EE409A 		vmov.f32	s18, s0
 367              	.LVL19:
 368              	.LBB113:
 369              	.LBI106:
 127:../../Documents/Daisy/DaisyExamples/libdaisy//src/daisy_seed.h ****     {
 370              		.loc 1 127 17 is_stmt 1 view .LVU79
 371              	.LBB110:
 372              		.loc 1 129 23 is_stmt 0 view .LVU80
 373 0020 FFF7FEFF 		bl	_ZN5daisy6LoggerILNS_17LoggerDestinationE1EE9PrintLineEPKcz
 374              	.LVL20:
 375              		.loc 1 129 23 view .LVU81
 376              	.LBE110:
 377              	.LBE113:
  44:DaisyDrone.cpp **** 
  45:DaisyDrone.cpp **** 	const int semitones[] = { 0, 3, 7, 12 };
 378              		.loc 6 45 2 is_stmt 1 view .LVU82
 379              		.loc 6 45 12 is_stmt 0 view .LVU83
 380 0024 1F4B     		ldr	r3, .L25+12
 381 0026 6C46     		mov	r4, sp
 382 0028 02AF     		add	r7, sp, #8
 383 002a 0FCB     		ldm	r3, {r0, r1, r2, r3}
 384 002c 84E80F00 		stm	r4, {r0, r1, r2, r3}
  46:DaisyDrone.cpp **** 	
  47:DaisyDrone.cpp **** 	for( int t = 0; t < NUM_TONES; ++t )
 385              		.loc 6 47 2 is_stmt 1 view .LVU84
ARM GAS  /var/folders/j4/zsgv5hks61j070b3g480n1j40000gn/T//ccPhVAM6.s 			page 16


 386              	.LVL21:
 387              	.LBB114:
 388              		.loc 6 47 20 view .LVU85
 389              	.L22:
 390              	.LBB115:
  48:DaisyDrone.cpp **** 	{
  49:DaisyDrone.cpp **** 		const int semitone = semitones[t];
 391              		.loc 6 49 3 discriminator 2 view .LVU86
 392              		.loc 6 49 13 is_stmt 0 discriminator 2 view .LVU87
 393 0030 54F8046B 		ldr	r6, [r4], #4
 394              	.LVL22:
  50:DaisyDrone.cpp **** 
  51:DaisyDrone.cpp **** 		const float freq_mult	= powf( 2.0f, semitone / 12.0f );
 395              		.loc 6 51 3 is_stmt 1 discriminator 2 view .LVU88
 396              		.loc 6 51 31 is_stmt 0 discriminator 2 view .LVU89
 397 0034 F2EE087A 		vmov.f32	s15, #1.2e+1
 398 0038 B0EE000A 		vmov.f32	s0, #2.0e+0
 399 003c 07EE106A 		vmov	s14, r6	@ int
 400 0040 F8EEC70A 		vcvt.f32.s32	s1, s14
 401 0044 C0EEA70A 		vdiv.f32	s1, s1, s15
 402 0048 FFF7FEFF 		bl	powf
 403              	.LVL23:
 404              	.LBB116:
 405              	.LBB117:
 406              		.file 7 "../../Documents/Daisy/DaisyExamples/daisysp//Source/Synthesis/oscillator.h"
   1:../../Documents/Daisy/DaisyExamples/daisysp//Source/Synthesis/oscillator.h **** #pragma once
   2:../../Documents/Daisy/DaisyExamples/daisysp//Source/Synthesis/oscillator.h **** #ifndef DSY_OSCILLATOR_H
   3:../../Documents/Daisy/DaisyExamples/daisysp//Source/Synthesis/oscillator.h **** #define DSY_OSCILLATOR_H
   4:../../Documents/Daisy/DaisyExamples/daisysp//Source/Synthesis/oscillator.h **** #include <stdint.h>
   5:../../Documents/Daisy/DaisyExamples/daisysp//Source/Synthesis/oscillator.h **** #include "Utility/dsp.h"
   6:../../Documents/Daisy/DaisyExamples/daisysp//Source/Synthesis/oscillator.h **** #ifdef __cplusplus
   7:../../Documents/Daisy/DaisyExamples/daisysp//Source/Synthesis/oscillator.h **** 
   8:../../Documents/Daisy/DaisyExamples/daisysp//Source/Synthesis/oscillator.h **** namespace daisysp
   9:../../Documents/Daisy/DaisyExamples/daisysp//Source/Synthesis/oscillator.h **** {
  10:../../Documents/Daisy/DaisyExamples/daisysp//Source/Synthesis/oscillator.h **** /** Synthesis of several waveforms, including polyBLEP bandlimited waveforms.
  11:../../Documents/Daisy/DaisyExamples/daisysp//Source/Synthesis/oscillator.h **** */
  12:../../Documents/Daisy/DaisyExamples/daisysp//Source/Synthesis/oscillator.h **** class Oscillator
  13:../../Documents/Daisy/DaisyExamples/daisysp//Source/Synthesis/oscillator.h **** {
  14:../../Documents/Daisy/DaisyExamples/daisysp//Source/Synthesis/oscillator.h ****   public:
  15:../../Documents/Daisy/DaisyExamples/daisysp//Source/Synthesis/oscillator.h ****     Oscillator() {}
  16:../../Documents/Daisy/DaisyExamples/daisysp//Source/Synthesis/oscillator.h ****     ~Oscillator() {}
  17:../../Documents/Daisy/DaisyExamples/daisysp//Source/Synthesis/oscillator.h ****     /** Choices for output waveforms, POLYBLEP are appropriately labeled. Others are naive forms.
  18:../../Documents/Daisy/DaisyExamples/daisysp//Source/Synthesis/oscillator.h ****     */
  19:../../Documents/Daisy/DaisyExamples/daisysp//Source/Synthesis/oscillator.h ****     enum
  20:../../Documents/Daisy/DaisyExamples/daisysp//Source/Synthesis/oscillator.h ****     {
  21:../../Documents/Daisy/DaisyExamples/daisysp//Source/Synthesis/oscillator.h ****         WAVE_SIN,
  22:../../Documents/Daisy/DaisyExamples/daisysp//Source/Synthesis/oscillator.h ****         WAVE_TRI,
  23:../../Documents/Daisy/DaisyExamples/daisysp//Source/Synthesis/oscillator.h ****         WAVE_SAW,
  24:../../Documents/Daisy/DaisyExamples/daisysp//Source/Synthesis/oscillator.h ****         WAVE_RAMP,
  25:../../Documents/Daisy/DaisyExamples/daisysp//Source/Synthesis/oscillator.h ****         WAVE_SQUARE,
  26:../../Documents/Daisy/DaisyExamples/daisysp//Source/Synthesis/oscillator.h ****         WAVE_POLYBLEP_TRI,
  27:../../Documents/Daisy/DaisyExamples/daisysp//Source/Synthesis/oscillator.h ****         WAVE_POLYBLEP_SAW,
  28:../../Documents/Daisy/DaisyExamples/daisysp//Source/Synthesis/oscillator.h ****         WAVE_POLYBLEP_SQUARE,
  29:../../Documents/Daisy/DaisyExamples/daisysp//Source/Synthesis/oscillator.h ****         WAVE_LAST,
  30:../../Documents/Daisy/DaisyExamples/daisysp//Source/Synthesis/oscillator.h ****     };
  31:../../Documents/Daisy/DaisyExamples/daisysp//Source/Synthesis/oscillator.h **** 
  32:../../Documents/Daisy/DaisyExamples/daisysp//Source/Synthesis/oscillator.h **** 
ARM GAS  /var/folders/j4/zsgv5hks61j070b3g480n1j40000gn/T//ccPhVAM6.s 			page 17


  33:../../Documents/Daisy/DaisyExamples/daisysp//Source/Synthesis/oscillator.h ****     /** Initializes the Oscillator
  34:../../Documents/Daisy/DaisyExamples/daisysp//Source/Synthesis/oscillator.h **** 
  35:../../Documents/Daisy/DaisyExamples/daisysp//Source/Synthesis/oscillator.h ****         \param sample_rate - sample rate of the audio engine being run, and the frequency that the 
  36:../../Documents/Daisy/DaisyExamples/daisysp//Source/Synthesis/oscillator.h **** 
  37:../../Documents/Daisy/DaisyExamples/daisysp//Source/Synthesis/oscillator.h ****         Defaults:
  38:../../Documents/Daisy/DaisyExamples/daisysp//Source/Synthesis/oscillator.h ****         - freq_ = 100 Hz
  39:../../Documents/Daisy/DaisyExamples/daisysp//Source/Synthesis/oscillator.h ****         - amp_ = 0.5
  40:../../Documents/Daisy/DaisyExamples/daisysp//Source/Synthesis/oscillator.h ****         - waveform_ = sine wave.
  41:../../Documents/Daisy/DaisyExamples/daisysp//Source/Synthesis/oscillator.h ****     */
  42:../../Documents/Daisy/DaisyExamples/daisysp//Source/Synthesis/oscillator.h ****     void Init(float sample_rate)
  43:../../Documents/Daisy/DaisyExamples/daisysp//Source/Synthesis/oscillator.h ****     {
  44:../../Documents/Daisy/DaisyExamples/daisysp//Source/Synthesis/oscillator.h ****         sr_        = sample_rate;
  45:../../Documents/Daisy/DaisyExamples/daisysp//Source/Synthesis/oscillator.h ****         sr_recip_  = 1.0f / sample_rate;
  46:../../Documents/Daisy/DaisyExamples/daisysp//Source/Synthesis/oscillator.h ****         freq_      = 100.0f;
  47:../../Documents/Daisy/DaisyExamples/daisysp//Source/Synthesis/oscillator.h ****         amp_       = 0.5f;
  48:../../Documents/Daisy/DaisyExamples/daisysp//Source/Synthesis/oscillator.h ****         phase_     = 0.0f;
  49:../../Documents/Daisy/DaisyExamples/daisysp//Source/Synthesis/oscillator.h ****         phase_inc_ = CalcPhaseInc(freq_);
  50:../../Documents/Daisy/DaisyExamples/daisysp//Source/Synthesis/oscillator.h ****         waveform_  = WAVE_SIN;
  51:../../Documents/Daisy/DaisyExamples/daisysp//Source/Synthesis/oscillator.h ****         eoc_       = true;
  52:../../Documents/Daisy/DaisyExamples/daisysp//Source/Synthesis/oscillator.h ****         eor_       = true;
  53:../../Documents/Daisy/DaisyExamples/daisysp//Source/Synthesis/oscillator.h ****     }
  54:../../Documents/Daisy/DaisyExamples/daisysp//Source/Synthesis/oscillator.h **** 
  55:../../Documents/Daisy/DaisyExamples/daisysp//Source/Synthesis/oscillator.h **** 
  56:../../Documents/Daisy/DaisyExamples/daisysp//Source/Synthesis/oscillator.h ****     /** Changes the frequency of the Oscillator, and recalculates phase increment.
  57:../../Documents/Daisy/DaisyExamples/daisysp//Source/Synthesis/oscillator.h ****     */
  58:../../Documents/Daisy/DaisyExamples/daisysp//Source/Synthesis/oscillator.h ****     inline void SetFreq(const float f)
  59:../../Documents/Daisy/DaisyExamples/daisysp//Source/Synthesis/oscillator.h ****     {
  60:../../Documents/Daisy/DaisyExamples/daisysp//Source/Synthesis/oscillator.h ****         freq_      = f;
  61:../../Documents/Daisy/DaisyExamples/daisysp//Source/Synthesis/oscillator.h ****         phase_inc_ = CalcPhaseInc(f);
 407              		.loc 7 61 34 discriminator 2 view .LVU90
 408 004c 2846     		mov	r0, r5
 409              	.LBE117:
 410              	.LBE116:
 411              	.LBE115:
  47:DaisyDrone.cpp **** 	{
 412              		.loc 6 47 20 discriminator 2 view .LVU91
 413 004e 2835     		adds	r5, r5, #40
 414              	.LBB127:
  52:DaisyDrone.cpp **** 		const float freq		= base_frequency * freq_mult;
 415              		.loc 6 52 15 discriminator 2 view .LVU92
 416 0050 69EE008A 		vmul.f32	s17, s18, s0
  51:DaisyDrone.cpp **** 		const float freq		= base_frequency * freq_mult;
 417              		.loc 6 51 31 discriminator 2 view .LVU93
 418 0054 B0EE408A 		vmov.f32	s16, s0
 419              	.LVL24:
 420              		.loc 6 52 3 is_stmt 1 discriminator 2 view .LVU94
  53:DaisyDrone.cpp **** 		oscillators[t].SetFreq(freq);
 421              		.loc 6 53 3 discriminator 2 view .LVU95
 422              	.LBB120:
 423              	.LBI116:
  58:../../Documents/Daisy/DaisyExamples/daisysp//Source/Synthesis/oscillator.h ****     {
 424              		.loc 7 58 17 discriminator 2 view .LVU96
 425              	.LBB118:
  60:../../Documents/Daisy/DaisyExamples/daisysp//Source/Synthesis/oscillator.h ****         phase_inc_ = CalcPhaseInc(f);
 426              		.loc 7 60 9 discriminator 2 view .LVU97
 427              		.loc 7 61 34 is_stmt 0 discriminator 2 view .LVU98
 428 0058 B0EE680A 		vmov.f32	s0, s17
ARM GAS  /var/folders/j4/zsgv5hks61j070b3g480n1j40000gn/T//ccPhVAM6.s 			page 18


 429              	.LVL25:
  60:../../Documents/Daisy/DaisyExamples/daisysp//Source/Synthesis/oscillator.h ****         phase_inc_ = CalcPhaseInc(f);
 430              		.loc 7 60 20 discriminator 2 view .LVU99
 431 005c 45ED088A 		vstr.32	s17, [r5, #-32]
 432              		.loc 7 61 9 is_stmt 1 discriminator 2 view .LVU100
 433              		.loc 7 61 34 is_stmt 0 discriminator 2 view .LVU101
 434 0060 FFF7FEFF 		bl	_ZN7daisysp10Oscillator12CalcPhaseIncEf
 435              	.LVL26:
 436              	.LBE118:
 437              	.LBE120:
  54:DaisyDrone.cpp **** 
  55:DaisyDrone.cpp **** 		hw.PrintLine("%d %d %d", semitone, int(freq_mult * 100), int(freq * 100));
 438              		.loc 6 55 69 discriminator 2 view .LVU102
 439 0064 DFED0C7A 		vldr.32	s15, .L25
 440              	.LBB121:
 441              	.LBB122:
 442              		.loc 1 129 23 discriminator 2 view .LVU103
 443 0068 3146     		mov	r1, r6
 444 006a 0F48     		ldr	r0, .L25+16
 445              	.LBE122:
 446              	.LBE121:
 447              		.loc 6 55 69 discriminator 2 view .LVU104
 448 006c 68EEA78A 		vmul.f32	s17, s17, s15
 449              	.LVL27:
 450              	.LBB124:
 451              	.LBB119:
 452              		.loc 7 61 20 discriminator 2 view .LVU105
 453 0070 05ED040A 		vstr.32	s0, [r5, #-16]
 454              	.LVL28:
 455              		.loc 7 61 20 discriminator 2 view .LVU106
 456              	.LBE119:
 457              	.LBE124:
 458              		.loc 6 55 3 is_stmt 1 discriminator 2 view .LVU107
 459              	.LBB125:
 460              	.LBI121:
 127:../../Documents/Daisy/DaisyExamples/libdaisy//src/daisy_seed.h ****     {
 461              		.loc 1 127 17 discriminator 2 view .LVU108
 462              	.LBE125:
 463              		.loc 6 55 52 is_stmt 0 discriminator 2 view .LVU109
 464 0074 28EE278A 		vmul.f32	s16, s16, s15
 465              	.LVL29:
 466              	.LBB126:
 467              	.LBB123:
 468              		.loc 1 129 23 discriminator 2 view .LVU110
 469 0078 FDEEE87A 		vcvt.s32.f32	s15, s17
 470 007c 17EE903A 		vmov	r3, s15	@ int
 471 0080 FDEEC87A 		vcvt.s32.f32	s15, s16
 472 0084 17EE902A 		vmov	r2, s15	@ int
 473 0088 FFF7FEFF 		bl	_ZN5daisy6LoggerILNS_17LoggerDestinationE1EE9PrintLineEPKcz
 474              	.LVL30:
 475              		.loc 1 129 23 discriminator 2 view .LVU111
 476              	.LBE123:
 477              	.LBE126:
 478              	.LBE127:
  47:DaisyDrone.cpp **** 	{
 479              		.loc 6 47 2 is_stmt 1 discriminator 2 view .LVU112
  47:DaisyDrone.cpp **** 	{
ARM GAS  /var/folders/j4/zsgv5hks61j070b3g480n1j40000gn/T//ccPhVAM6.s 			page 19


 480              		.loc 6 47 20 discriminator 2 view .LVU113
 481 008c BC42     		cmp	r4, r7
 482 008e CFD1     		bne	.L22
 483              	.LBE114:
  56:DaisyDrone.cpp **** 	}
  57:DaisyDrone.cpp **** }
 484              		.loc 6 57 1 is_stmt 0 view .LVU114
 485 0090 05B0     		add	sp, sp, #20
 486              		.cfi_def_cfa_offset 36
 487              		@ sp needed
 488 0092 BDEC048B 		vldm	sp!, {d8-d9}
 489              		.cfi_restore 82
 490              		.cfi_restore 83
 491              		.cfi_restore 80
 492              		.cfi_restore 81
 493              		.cfi_def_cfa_offset 20
 494              	.LVL31:
 495              		.loc 6 57 1 view .LVU115
 496 0096 F0BD     		pop	{r4, r5, r6, r7, pc}
 497              	.LVL32:
 498              	.L26:
 499              		.loc 6 57 1 view .LVU116
 500              		.align	2
 501              	.L25:
 502 0098 0000C842 		.word	1120403456
 503 009c 00000000 		.word	.LC1
 504 00a0 00000000 		.word	.LANCHOR0
 505 00a4 00000000 		.word	.LANCHOR2
 506 00a8 14000000 		.word	.LC2
 507              		.cfi_endproc
 508              	.LFE4270:
 510              		.section	.rodata.main.str1.4,"aMS",%progbits,1
 511              		.align	2
 512              	.LC3:
 513 0000 53746172 		.ascii	"Startup complete\000"
 513      74757020 
 513      636F6D70 
 513      6C657465 
 513      00
 514              		.section	.text.startup.main,"ax",%progbits
 515              		.align	1
 516              		.p2align 2,,3
 517              		.global	main
 518              		.syntax unified
 519              		.thumb
 520              		.thumb_func
 522              	main:
 523              	.LFB4271:
  58:DaisyDrone.cpp **** 
  59:DaisyDrone.cpp **** int main(void)
  60:DaisyDrone.cpp **** {
 524              		.loc 6 60 1 is_stmt 1 view -0
 525              		.cfi_startproc
 526              		@ args = 0, pretend = 0, frame = 0
 527              		@ frame_needed = 0, uses_anonymous_args = 0
  61:DaisyDrone.cpp **** 	hw.Configure();
 528              		.loc 6 61 2 view .LVU118
ARM GAS  /var/folders/j4/zsgv5hks61j070b3g480n1j40000gn/T//ccPhVAM6.s 			page 20


  60:DaisyDrone.cpp **** 	hw.Configure();
 529              		.loc 6 60 1 is_stmt 0 view .LVU119
 530 0000 F8B5     		push	{r3, r4, r5, r6, r7, lr}
 531              		.cfi_def_cfa_offset 24
 532              		.cfi_offset 3, -24
 533              		.cfi_offset 4, -20
 534              		.cfi_offset 5, -16
 535              		.cfi_offset 6, -12
 536              		.cfi_offset 7, -8
 537              		.cfi_offset 14, -4
 538              		.loc 6 61 14 view .LVU120
 539 0002 2B48     		ldr	r0, .L32
 540              	.LBB144:
  62:DaisyDrone.cpp **** 	hw.Init();
  63:DaisyDrone.cpp **** 
  64:DaisyDrone.cpp **** 	hw.StartLog(false/*block until serial connection opened*/);
  65:DaisyDrone.cpp **** 
  66:DaisyDrone.cpp **** 	init_adc();
  67:DaisyDrone.cpp **** 
  68:DaisyDrone.cpp ****     //Set up oscillators
  69:DaisyDrone.cpp **** 	const float sample_rate = hw.AudioSampleRate();
  70:DaisyDrone.cpp **** 	for( Oscillator& osc : oscillators )
 541              		.loc 6 70 25 view .LVU121
 542 0004 2B4C     		ldr	r4, .L32+4
 543              	.LBE144:
  60:DaisyDrone.cpp **** 	hw.Configure();
 544              		.loc 6 60 1 view .LVU122
 545 0006 2DED028B 		vpush.64	{d8}
 546              		.cfi_def_cfa_offset 32
 547              		.cfi_offset 80, -32
 548              		.cfi_offset 81, -28
  61:DaisyDrone.cpp **** 	hw.Init();
 549              		.loc 6 61 14 view .LVU123
 550 000a FFF7FEFF 		bl	_ZN5daisy9DaisySeed9ConfigureEv
 551              	.LVL33:
  62:DaisyDrone.cpp **** 	hw.Init();
 552              		.loc 6 62 2 is_stmt 1 view .LVU124
  62:DaisyDrone.cpp **** 	hw.Init();
 553              		.loc 6 62 9 is_stmt 0 view .LVU125
 554 000e 0021     		movs	r1, #0
 555 0010 2748     		ldr	r0, .L32
 556              	.LBB159:
 557              		.loc 6 70 25 view .LVU126
 558 0012 2546     		mov	r5, r4
 559              	.LBE159:
  62:DaisyDrone.cpp **** 	hw.Init();
 560              		.loc 6 62 9 view .LVU127
 561 0014 FFF7FEFF 		bl	_ZN5daisy9DaisySeed4InitEb
 562              	.LVL34:
  64:DaisyDrone.cpp **** 
 563              		.loc 6 64 2 is_stmt 1 view .LVU128
 564              	.LBB160:
 565              	.LBI160:
 130:../../Documents/Daisy/DaisyExamples/libdaisy//src/daisy_seed.h ****     }
 131:../../Documents/Daisy/DaisyExamples/libdaisy//src/daisy_seed.h **** 
 132:../../Documents/Daisy/DaisyExamples/libdaisy//src/daisy_seed.h ****     /** Start the logging session. Optionally wait for terminal connection before proceeding.
 133:../../Documents/Daisy/DaisyExamples/libdaisy//src/daisy_seed.h ****     */
ARM GAS  /var/folders/j4/zsgv5hks61j070b3g480n1j40000gn/T//ccPhVAM6.s 			page 21


 134:../../Documents/Daisy/DaisyExamples/libdaisy//src/daisy_seed.h ****     static void StartLog(bool wait_for_pc = false)
 566              		.loc 1 134 17 view .LVU129
 567              	.LBB161:
 135:../../Documents/Daisy/DaisyExamples/libdaisy//src/daisy_seed.h ****     {
 136:../../Documents/Daisy/DaisyExamples/libdaisy//src/daisy_seed.h ****         Log::StartLog(wait_for_pc);
 568              		.loc 1 136 9 view .LVU130
 569              		.loc 1 136 22 is_stmt 0 view .LVU131
 570 0018 0020     		movs	r0, #0
 571 001a FFF7FEFF 		bl	_ZN5daisy6LoggerILNS_17LoggerDestinationE1EE8StartLogEb
 572              	.LVL35:
 573              		.loc 1 136 22 view .LVU132
 574              	.LBE161:
 575              	.LBE160:
  66:DaisyDrone.cpp **** 
 576              		.loc 6 66 2 is_stmt 1 view .LVU133
 577 001e 04F15007 		add	r7, r4, #80
  66:DaisyDrone.cpp **** 
 578              		.loc 6 66 10 is_stmt 0 view .LVU134
 579 0022 FFF7FEFF 		bl	_Z8init_adcv
 580              	.LVL36:
  69:DaisyDrone.cpp **** 	for( Oscillator& osc : oscillators )
 581              		.loc 6 69 2 is_stmt 1 view .LVU135
  69:DaisyDrone.cpp **** 	for( Oscillator& osc : oscillators )
 582              		.loc 6 69 46 is_stmt 0 view .LVU136
 583 0026 2248     		ldr	r0, .L32
 584 0028 FFF7FEFF 		bl	_ZN5daisy9DaisySeed15AudioSampleRateEv
 585              	.LVL37:
 586              	.LBB162:
 587              	.LBB145:
 588              	.LBB146:
  45:../../Documents/Daisy/DaisyExamples/daisysp//Source/Synthesis/oscillator.h ****         freq_      = 100.0f;
 589              		.loc 7 45 27 view .LVU137
 590 002c F7EE007A 		vmov.f32	s15, #1.0e+0
 591              	.LBE146:
 592              	.LBE145:
 593              	.LBE162:
  69:DaisyDrone.cpp **** 	for( Oscillator& osc : oscillators )
 594              		.loc 6 69 46 view .LVU138
 595 0030 B0EE408A 		vmov.f32	s16, s0
 596              	.LVL38:
 597              		.loc 6 70 2 is_stmt 1 view .LVU139
 598              	.LBB163:
 599              		.loc 6 70 25 view .LVU140
 600              	.LBB151:
 601              	.LBB147:
  45:../../Documents/Daisy/DaisyExamples/daisysp//Source/Synthesis/oscillator.h ****         freq_      = 100.0f;
 602              		.loc 7 45 27 is_stmt 0 view .LVU141
 603 0034 C7EE808A 		vdiv.f32	s17, s15, s0
 604              	.LVL39:
 605              	.L28:
  45:../../Documents/Daisy/DaisyExamples/daisysp//Source/Synthesis/oscillator.h ****         freq_      = 100.0f;
 606              		.loc 7 45 27 view .LVU142
 607              	.LBE147:
 608              	.LBE151:
  71:DaisyDrone.cpp **** 	{
  72:DaisyDrone.cpp **** 		osc.Init(sample_rate);
 609              		.loc 6 72 3 is_stmt 1 view .LVU143
ARM GAS  /var/folders/j4/zsgv5hks61j070b3g480n1j40000gn/T//ccPhVAM6.s 			page 22


 610              	.LBB152:
 611              	.LBI145:
  42:../../Documents/Daisy/DaisyExamples/daisysp//Source/Synthesis/oscillator.h ****     {
 612              		.loc 7 42 10 view .LVU144
 613              	.LBB148:
  44:../../Documents/Daisy/DaisyExamples/daisysp//Source/Synthesis/oscillator.h ****         sr_recip_  = 1.0f / sample_rate;
 614              		.loc 7 44 9 view .LVU145
  47:../../Documents/Daisy/DaisyExamples/daisysp//Source/Synthesis/oscillator.h ****         phase_     = 0.0f;
 615              		.loc 7 47 20 is_stmt 0 view .LVU146
 616 0038 4FF07C53 		mov	r3, #1056964608
  46:../../Documents/Daisy/DaisyExamples/daisysp//Source/Synthesis/oscillator.h ****         amp_       = 0.5f;
 617              		.loc 7 46 20 view .LVU147
 618 003c 9FED1E0A 		vldr.32	s0, .L32+8
  48:../../Documents/Daisy/DaisyExamples/daisysp//Source/Synthesis/oscillator.h ****         phase_inc_ = CalcPhaseInc(freq_);
 619              		.loc 7 48 20 view .LVU148
 620 0040 0026     		movs	r6, #0
  44:../../Documents/Daisy/DaisyExamples/daisysp//Source/Synthesis/oscillator.h ****         sr_recip_  = 1.0f / sample_rate;
 621              		.loc 7 44 20 view .LVU149
 622 0042 85ED038A 		vstr.32	s16, [r5, #12]
  45:../../Documents/Daisy/DaisyExamples/daisysp//Source/Synthesis/oscillator.h ****         freq_      = 100.0f;
 623              		.loc 7 45 9 is_stmt 1 view .LVU150
  47:../../Documents/Daisy/DaisyExamples/daisysp//Source/Synthesis/oscillator.h ****         phase_     = 0.0f;
 624              		.loc 7 47 20 is_stmt 0 view .LVU151
 625 0046 6B60     		str	r3, [r5, #4]	@ float
  49:../../Documents/Daisy/DaisyExamples/daisysp//Source/Synthesis/oscillator.h ****         waveform_  = WAVE_SIN;
 626              		.loc 7 49 34 view .LVU152
 627 0048 2846     		mov	r0, r5
  45:../../Documents/Daisy/DaisyExamples/daisysp//Source/Synthesis/oscillator.h ****         freq_      = 100.0f;
 628              		.loc 7 45 20 view .LVU153
 629 004a C5ED048A 		vstr.32	s17, [r5, #16]
  46:../../Documents/Daisy/DaisyExamples/daisysp//Source/Synthesis/oscillator.h ****         amp_       = 0.5f;
 630              		.loc 7 46 9 is_stmt 1 view .LVU154
 631              	.LBE148:
 632              	.LBE152:
  70:DaisyDrone.cpp **** 	{
 633              		.loc 6 70 2 is_stmt 0 view .LVU155
 634 004e 2835     		adds	r5, r5, #40
 635              	.LVL40:
 636              	.LBB153:
 637              	.LBB149:
  46:../../Documents/Daisy/DaisyExamples/daisysp//Source/Synthesis/oscillator.h ****         amp_       = 0.5f;
 638              		.loc 7 46 20 view .LVU156
 639 0050 05ED080A 		vstr.32	s0, [r5, #-32]
  47:../../Documents/Daisy/DaisyExamples/daisysp//Source/Synthesis/oscillator.h ****         phase_     = 0.0f;
 640              		.loc 7 47 9 is_stmt 1 view .LVU157
  48:../../Documents/Daisy/DaisyExamples/daisysp//Source/Synthesis/oscillator.h ****         phase_inc_ = CalcPhaseInc(freq_);
 641              		.loc 7 48 9 view .LVU158
  48:../../Documents/Daisy/DaisyExamples/daisysp//Source/Synthesis/oscillator.h ****         phase_inc_ = CalcPhaseInc(freq_);
 642              		.loc 7 48 20 is_stmt 0 view .LVU159
 643 0054 45F8146C 		str	r6, [r5, #-20]	@ float
  49:../../Documents/Daisy/DaisyExamples/daisysp//Source/Synthesis/oscillator.h ****         waveform_  = WAVE_SIN;
 644              		.loc 7 49 9 is_stmt 1 view .LVU160
  49:../../Documents/Daisy/DaisyExamples/daisysp//Source/Synthesis/oscillator.h ****         waveform_  = WAVE_SIN;
 645              		.loc 7 49 34 is_stmt 0 view .LVU161
 646 0058 FFF7FEFF 		bl	_ZN7daisysp10Oscillator12CalcPhaseIncEf
 647              	.LVL41:
  51:../../Documents/Daisy/DaisyExamples/daisysp//Source/Synthesis/oscillator.h ****         eor_       = true;
ARM GAS  /var/folders/j4/zsgv5hks61j070b3g480n1j40000gn/T//ccPhVAM6.s 			page 23


 648              		.loc 7 51 20 view .LVU162
 649 005c 0123     		movs	r3, #1
  50:../../Documents/Daisy/DaisyExamples/daisysp//Source/Synthesis/oscillator.h ****         eoc_       = true;
 650              		.loc 7 50 20 view .LVU163
 651 005e 0022     		movs	r2, #0
  49:../../Documents/Daisy/DaisyExamples/daisysp//Source/Synthesis/oscillator.h ****         waveform_  = WAVE_SIN;
 652              		.loc 7 49 20 view .LVU164
 653 0060 05ED040A 		vstr.32	s0, [r5, #-16]
  50:../../Documents/Daisy/DaisyExamples/daisysp//Source/Synthesis/oscillator.h ****         eoc_       = true;
 654              		.loc 7 50 9 is_stmt 1 view .LVU165
 655              	.LBE149:
 656              	.LBE153:
 657              	.LBB154:
 658              	.LBB155:
  62:../../Documents/Daisy/DaisyExamples/daisysp//Source/Synthesis/oscillator.h ****     }
  63:../../Documents/Daisy/DaisyExamples/daisysp//Source/Synthesis/oscillator.h **** 
  64:../../Documents/Daisy/DaisyExamples/daisysp//Source/Synthesis/oscillator.h **** 
  65:../../Documents/Daisy/DaisyExamples/daisysp//Source/Synthesis/oscillator.h ****     /** Sets the amplitude of the waveform.
  66:../../Documents/Daisy/DaisyExamples/daisysp//Source/Synthesis/oscillator.h ****     */
  67:../../Documents/Daisy/DaisyExamples/daisysp//Source/Synthesis/oscillator.h ****     inline void SetAmp(const float a) { amp_ = a; }
 659              		.loc 7 67 46 is_stmt 0 view .LVU166
 660 0064 45F8246C 		str	r6, [r5, #-36]	@ float
 661              	.LBE155:
 662              	.LBE154:
 663              	.LBB157:
 664              	.LBB150:
  50:../../Documents/Daisy/DaisyExamples/daisysp//Source/Synthesis/oscillator.h ****         eoc_       = true;
 665              		.loc 7 50 20 view .LVU167
 666 0068 05F8282C 		strb	r2, [r5, #-40]
  51:../../Documents/Daisy/DaisyExamples/daisysp//Source/Synthesis/oscillator.h ****         eor_       = true;
 667              		.loc 7 51 9 is_stmt 1 view .LVU168
  51:../../Documents/Daisy/DaisyExamples/daisysp//Source/Synthesis/oscillator.h ****         eor_       = true;
 668              		.loc 7 51 20 is_stmt 0 view .LVU169
 669 006c 05F8033C 		strb	r3, [r5, #-3]
  52:../../Documents/Daisy/DaisyExamples/daisysp//Source/Synthesis/oscillator.h ****     }
 670              		.loc 7 52 9 is_stmt 1 view .LVU170
  52:../../Documents/Daisy/DaisyExamples/daisysp//Source/Synthesis/oscillator.h ****     }
 671              		.loc 7 52 20 is_stmt 0 view .LVU171
 672 0070 05F8043C 		strb	r3, [r5, #-4]
 673              	.LVL42:
  52:../../Documents/Daisy/DaisyExamples/daisysp//Source/Synthesis/oscillator.h ****     }
 674              		.loc 7 52 20 view .LVU172
 675              	.LBE150:
 676              	.LBE157:
  73:DaisyDrone.cpp **** 		osc.SetWaveform(osc.WAVE_SIN);
 677              		.loc 6 73 3 is_stmt 1 view .LVU173
 678              		.loc 6 73 3 is_stmt 0 view .LVU174
 679              	.LBE163:
  68:../../Documents/Daisy/DaisyExamples/daisysp//Source/Synthesis/oscillator.h ****     /** Sets the waveform to be synthesized by the Process() function.
  69:../../Documents/Daisy/DaisyExamples/daisysp//Source/Synthesis/oscillator.h ****     */
  70:../../Documents/Daisy/DaisyExamples/daisysp//Source/Synthesis/oscillator.h ****     inline void SetWaveform(const uint8_t wf)
  71:../../Documents/Daisy/DaisyExamples/daisysp//Source/Synthesis/oscillator.h ****     {
  72:../../Documents/Daisy/DaisyExamples/daisysp//Source/Synthesis/oscillator.h ****         waveform_ = wf < WAVE_LAST ? wf : WAVE_SIN;
 680              		.loc 7 72 9 is_stmt 1 view .LVU175
 681              	.LBB164:
  74:DaisyDrone.cpp **** 		osc.SetAmp(0.0f);
 682              		.loc 6 74 3 view .LVU176
ARM GAS  /var/folders/j4/zsgv5hks61j070b3g480n1j40000gn/T//ccPhVAM6.s 			page 24


 683              	.LBB158:
 684              	.LBI154:
  67:../../Documents/Daisy/DaisyExamples/daisysp//Source/Synthesis/oscillator.h ****     /** Sets the waveform to be synthesized by the Process() function.
 685              		.loc 7 67 17 view .LVU177
 686              	.LBB156:
  67:../../Documents/Daisy/DaisyExamples/daisysp//Source/Synthesis/oscillator.h ****     /** Sets the waveform to be synthesized by the Process() function.
 687              		.loc 7 67 41 view .LVU178
  67:../../Documents/Daisy/DaisyExamples/daisysp//Source/Synthesis/oscillator.h ****     /** Sets the waveform to be synthesized by the Process() function.
 688              		.loc 7 67 41 is_stmt 0 view .LVU179
 689              	.LBE156:
 690              	.LBE158:
  70:DaisyDrone.cpp **** 	{
 691              		.loc 6 70 2 is_stmt 1 view .LVU180
  70:DaisyDrone.cpp **** 	{
 692              		.loc 6 70 25 view .LVU181
 693 0074 BD42     		cmp	r5, r7
 694 0076 DFD1     		bne	.L28
 695              	.LBE164:
  75:DaisyDrone.cpp **** 	}
  76:DaisyDrone.cpp **** 
  77:DaisyDrone.cpp **** 	//const float base_frequency = 65.41f; // C2
  78:DaisyDrone.cpp **** 	float base_frequency = 440.0f;
 696              		.loc 6 78 2 view .LVU182
 697              	.LVL43:
  79:DaisyDrone.cpp **** 	set_tones(base_frequency);
 698              		.loc 6 79 2 view .LVU183
 699              		.loc 6 79 11 is_stmt 0 view .LVU184
 700 0078 9FED100A 		vldr.32	s0, .L32+12
 701 007c FFF7FEFF 		bl	_Z9set_tonesf
 702              	.LVL44:
  80:DaisyDrone.cpp **** 
  81:DaisyDrone.cpp **** 	// NOTE: AGND and DGND must be connected for audio and ADC to work
  82:DaisyDrone.cpp **** 	hw.StartAudio(audio_callback);
 703              		.loc 6 82 2 is_stmt 1 view .LVU185
 704              		.loc 6 82 15 is_stmt 0 view .LVU186
 705 0080 0B48     		ldr	r0, .L32
 706 0082 0F49     		ldr	r1, .L32+16
 707 0084 FFF7FEFF 		bl	_ZN5daisy9DaisySeed10StartAudioEPFvPKPKfPPfjE
 708              	.LVL45:
  83:DaisyDrone.cpp **** 
  84:DaisyDrone.cpp **** 	hw.PrintLine("Startup complete");
 709              		.loc 6 84 2 is_stmt 1 view .LVU187
 710              	.LBB165:
 711              	.LBI165:
 127:../../Documents/Daisy/DaisyExamples/libdaisy//src/daisy_seed.h ****     {
 712              		.loc 1 127 17 view .LVU188
 713              	.LBB166:
 129:../../Documents/Daisy/DaisyExamples/libdaisy//src/daisy_seed.h ****     }
 714              		.loc 1 129 23 is_stmt 0 view .LVU189
 715 0088 0E48     		ldr	r0, .L32+20
 716 008a FFF7FEFF 		bl	_ZN5daisy6LoggerILNS_17LoggerDestinationE1EE9PrintLineEPKcz
 717              	.LVL46:
 718              	.L29:
 129:../../Documents/Daisy/DaisyExamples/libdaisy//src/daisy_seed.h ****     }
 719              		.loc 1 129 23 view .LVU190
 720              	.LBE166:
 721              	.LBE165:
ARM GAS  /var/folders/j4/zsgv5hks61j070b3g480n1j40000gn/T//ccPhVAM6.s 			page 25


  85:DaisyDrone.cpp **** 
  86:DaisyDrone.cpp **** 	while(1)
 722              		.loc 6 86 2 is_stmt 1 view .LVU191
 723              	.LBB167:
  87:DaisyDrone.cpp **** 	{	
  88:DaisyDrone.cpp **** 		for( int t = 0; t < NUM_TONES; ++t )
 724              		.loc 6 88 3 view .LVU192
 725              	.LBB168:
 726              		.loc 6 88 21 view .LVU193
 727              	.LBB169:
  89:DaisyDrone.cpp **** 		{
  90:DaisyDrone.cpp **** 			const float pot_val = hw.adc.GetFloat(t);
 728              		.loc 6 90 4 view .LVU194
 729              		.loc 6 90 41 is_stmt 0 view .LVU195
 730 008e 0021     		movs	r1, #0
 731 0090 0D48     		ldr	r0, .L32+24
 732 0092 FFF7FEFF 		bl	_ZNK5daisy9AdcHandle8GetFloatEh
 733              	.LVL47:
  91:DaisyDrone.cpp **** 
  92:DaisyDrone.cpp **** 			oscillators[t].SetAmp(pot_val);
 734              		.loc 6 92 4 is_stmt 1 view .LVU196
 735              	.LBB170:
 736              	.LBI170:
  67:../../Documents/Daisy/DaisyExamples/daisysp//Source/Synthesis/oscillator.h ****     /** Sets the waveform to be synthesized by the Process() function.
 737              		.loc 7 67 17 view .LVU197
 738              	.LBB171:
  67:../../Documents/Daisy/DaisyExamples/daisysp//Source/Synthesis/oscillator.h ****     /** Sets the waveform to be synthesized by the Process() function.
 739              		.loc 7 67 41 view .LVU198
 740              	.LBE171:
 741              	.LBE170:
  90:DaisyDrone.cpp **** 
 742              		.loc 6 90 41 is_stmt 0 view .LVU199
 743 0096 0121     		movs	r1, #1
 744 0098 0B48     		ldr	r0, .L32+24
 745              	.LBB175:
 746              	.LBB172:
  67:../../Documents/Daisy/DaisyExamples/daisysp//Source/Synthesis/oscillator.h ****     /** Sets the waveform to be synthesized by the Process() function.
 747              		.loc 7 67 46 view .LVU200
 748 009a 84ED010A 		vstr.32	s0, [r4, #4]
 749              	.LVL48:
  67:../../Documents/Daisy/DaisyExamples/daisysp//Source/Synthesis/oscillator.h ****     /** Sets the waveform to be synthesized by the Process() function.
 750              		.loc 7 67 46 view .LVU201
 751              	.LBE172:
 752              	.LBE175:
 753              	.LBE169:
  88:DaisyDrone.cpp **** 		{
 754              		.loc 6 88 3 is_stmt 1 view .LVU202
  88:DaisyDrone.cpp **** 		{
 755              		.loc 6 88 21 view .LVU203
 756              	.LBB178:
  90:DaisyDrone.cpp **** 
 757              		.loc 6 90 4 view .LVU204
  90:DaisyDrone.cpp **** 
 758              		.loc 6 90 41 is_stmt 0 view .LVU205
 759 009e FFF7FEFF 		bl	_ZNK5daisy9AdcHandle8GetFloatEh
 760              	.LVL49:
 761              		.loc 6 92 4 is_stmt 1 view .LVU206
ARM GAS  /var/folders/j4/zsgv5hks61j070b3g480n1j40000gn/T//ccPhVAM6.s 			page 26


 762              	.LBB176:
  67:../../Documents/Daisy/DaisyExamples/daisysp//Source/Synthesis/oscillator.h ****     /** Sets the waveform to be synthesized by the Process() function.
 763              		.loc 7 67 17 view .LVU207
 764              	.LBB173:
  67:../../Documents/Daisy/DaisyExamples/daisysp//Source/Synthesis/oscillator.h ****     /** Sets the waveform to be synthesized by the Process() function.
 765              		.loc 7 67 41 view .LVU208
 766              	.LBE173:
 767              	.LBE176:
 768              	.LBE178:
 769              	.LBE168:
  93:DaisyDrone.cpp **** 		}
  94:DaisyDrone.cpp **** 
  95:DaisyDrone.cpp ****         //wait 1 ms
  96:DaisyDrone.cpp ****         System::Delay(1);		
 770              		.loc 6 96 22 is_stmt 0 view .LVU209
 771 00a2 0120     		movs	r0, #1
 772              	.LBB180:
 773              	.LBB179:
 774              	.LBB177:
 775              	.LBB174:
  67:../../Documents/Daisy/DaisyExamples/daisysp//Source/Synthesis/oscillator.h ****     /** Sets the waveform to be synthesized by the Process() function.
 776              		.loc 7 67 46 view .LVU210
 777 00a4 84ED0B0A 		vstr.32	s0, [r4, #44]
 778              	.LVL50:
  67:../../Documents/Daisy/DaisyExamples/daisysp//Source/Synthesis/oscillator.h ****     /** Sets the waveform to be synthesized by the Process() function.
 779              		.loc 7 67 46 view .LVU211
 780              	.LBE174:
 781              	.LBE177:
 782              	.LBE179:
  88:DaisyDrone.cpp **** 		{
 783              		.loc 6 88 3 is_stmt 1 view .LVU212
  88:DaisyDrone.cpp **** 		{
 784              		.loc 6 88 21 view .LVU213
 785              	.LBE180:
 786              		.loc 6 96 9 view .LVU214
 787              		.loc 6 96 22 is_stmt 0 view .LVU215
 788 00a8 FFF7FEFF 		bl	_ZN5daisy6System5DelayEm
 789              	.LVL51:
 790              		.loc 6 96 22 view .LVU216
 791              	.LBE167:
  86:DaisyDrone.cpp **** 	{	
 792              		.loc 6 86 2 is_stmt 1 view .LVU217
 793 00ac EFE7     		b	.L29
 794              	.L33:
 795 00ae 00BF     		.align	2
 796              	.L32:
 797 00b0 00000000 		.word	.LANCHOR1
 798 00b4 00000000 		.word	.LANCHOR0
 799 00b8 0000C842 		.word	1120403456
 800 00bc 0000DC43 		.word	1138491392
 801 00c0 00000000 		.word	_Z14audio_callbackPKPKfPPfj
 802 00c4 00000000 		.word	.LC3
 803 00c8 18000000 		.word	.LANCHOR1+24
 804              		.cfi_endproc
 805              	.LFE4271:
 807              		.section	.text.startup._GLOBAL__sub_I_hw,"ax",%progbits
 808              		.align	1
ARM GAS  /var/folders/j4/zsgv5hks61j070b3g480n1j40000gn/T//ccPhVAM6.s 			page 27


 809              		.p2align 2,,3
 810              		.syntax unified
 811              		.thumb
 812              		.thumb_func
 814              	_GLOBAL__sub_I_hw:
 815              	.LFB4832:
  97:DaisyDrone.cpp **** 	}
  98:DaisyDrone.cpp **** }
 816              		.loc 6 98 1 view -0
 817              		.cfi_startproc
 818              		@ args = 0, pretend = 0, frame = 0
 819              		@ frame_needed = 0, uses_anonymous_args = 0
 820              	.LBB200:
 821              	.LBI200:
 822              		.loc 6 98 1 view .LVU219
 823              	.LVL52:
 824              	.LBB201:
 825              	.LBB202:
 826              	.LBI202:
  21:../../Documents/Daisy/DaisyExamples/libdaisy//src/daisy_seed.h ****     ~DaisySeed() {}
 827              		.loc 1 21 5 view .LVU220
 828              	.LBB203:
 829              	.LBB204:
 830              	.LBI204:
 831              		.file 8 "../../Documents/Daisy/DaisyExamples/libdaisy//src/per/qspi.h"
   1:../../Documents/Daisy/DaisyExamples/libdaisy//src/per/qspi.h **** #ifndef DSY_QSPI
   2:../../Documents/Daisy/DaisyExamples/libdaisy//src/per/qspi.h **** #define DSY_QSPI /**< Macro */
   3:../../Documents/Daisy/DaisyExamples/libdaisy//src/per/qspi.h **** 
   4:../../Documents/Daisy/DaisyExamples/libdaisy//src/per/qspi.h **** #ifndef UNIT_TEST // for unit tests, a dummy implementation
   5:../../Documents/Daisy/DaisyExamples/libdaisy//src/per/qspi.h **** 
   6:../../Documents/Daisy/DaisyExamples/libdaisy//src/per/qspi.h **** #include <cstdint>
   7:../../Documents/Daisy/DaisyExamples/libdaisy//src/per/qspi.h **** #include "daisy_core.h" // Added for dsy_gpio_pin typedef
   8:../../Documents/Daisy/DaisyExamples/libdaisy//src/per/qspi.h **** 
   9:../../Documents/Daisy/DaisyExamples/libdaisy//src/per/qspi.h **** #define DSY_QSPI_TEXT       \
  10:../../Documents/Daisy/DaisyExamples/libdaisy//src/per/qspi.h ****     __attribute__((section( \
  11:../../Documents/Daisy/DaisyExamples/libdaisy//src/per/qspi.h ****         ".qspiflash_text"))) /**< used for reading memory in memory_mapped mode. */
  12:../../Documents/Daisy/DaisyExamples/libdaisy//src/per/qspi.h **** #define DSY_QSPI_DATA       \
  13:../../Documents/Daisy/DaisyExamples/libdaisy//src/per/qspi.h ****     __attribute__((section( \
  14:../../Documents/Daisy/DaisyExamples/libdaisy//src/per/qspi.h ****         ".qspiflash_data"))) /**< used for reading memory in memory_mapped mode. */
  15:../../Documents/Daisy/DaisyExamples/libdaisy//src/per/qspi.h **** #define DSY_QSPI_BSS        \
  16:../../Documents/Daisy/DaisyExamples/libdaisy//src/per/qspi.h ****     __attribute__((section( \
  17:../../Documents/Daisy/DaisyExamples/libdaisy//src/per/qspi.h ****         ".qspiflash_bss"))) /**< used for reading memory in memory_mapped mode. */
  18:../../Documents/Daisy/DaisyExamples/libdaisy//src/per/qspi.h **** 
  19:../../Documents/Daisy/DaisyExamples/libdaisy//src/per/qspi.h **** namespace daisy
  20:../../Documents/Daisy/DaisyExamples/libdaisy//src/per/qspi.h **** {
  21:../../Documents/Daisy/DaisyExamples/libdaisy//src/per/qspi.h **** /** @addtogroup serial
  22:../../Documents/Daisy/DaisyExamples/libdaisy//src/per/qspi.h **** @{
  23:../../Documents/Daisy/DaisyExamples/libdaisy//src/per/qspi.h **** */
  24:../../Documents/Daisy/DaisyExamples/libdaisy//src/per/qspi.h **** 
  25:../../Documents/Daisy/DaisyExamples/libdaisy//src/per/qspi.h **** /** 
  26:../../Documents/Daisy/DaisyExamples/libdaisy//src/per/qspi.h ****  Driver for QSPI peripheral to interface with external flash memory. \n 
  27:../../Documents/Daisy/DaisyExamples/libdaisy//src/per/qspi.h ****     Currently supported QSPI Devices: \n 
  28:../../Documents/Daisy/DaisyExamples/libdaisy//src/per/qspi.h ****     * IS25LP080D
  29:../../Documents/Daisy/DaisyExamples/libdaisy//src/per/qspi.h **** */
  30:../../Documents/Daisy/DaisyExamples/libdaisy//src/per/qspi.h **** class QSPIHandle
  31:../../Documents/Daisy/DaisyExamples/libdaisy//src/per/qspi.h **** {
  32:../../Documents/Daisy/DaisyExamples/libdaisy//src/per/qspi.h ****   public:
ARM GAS  /var/folders/j4/zsgv5hks61j070b3g480n1j40000gn/T//ccPhVAM6.s 			page 28


  33:../../Documents/Daisy/DaisyExamples/libdaisy//src/per/qspi.h ****     enum Result
  34:../../Documents/Daisy/DaisyExamples/libdaisy//src/per/qspi.h ****     {
  35:../../Documents/Daisy/DaisyExamples/libdaisy//src/per/qspi.h ****         OK = 0,
  36:../../Documents/Daisy/DaisyExamples/libdaisy//src/per/qspi.h ****         ERR
  37:../../Documents/Daisy/DaisyExamples/libdaisy//src/per/qspi.h ****     };
  38:../../Documents/Daisy/DaisyExamples/libdaisy//src/per/qspi.h **** 
  39:../../Documents/Daisy/DaisyExamples/libdaisy//src/per/qspi.h ****     /** Indicates the current status of the module. 
  40:../../Documents/Daisy/DaisyExamples/libdaisy//src/per/qspi.h ****          *  Warnings are indicated by a leading W.
  41:../../Documents/Daisy/DaisyExamples/libdaisy//src/per/qspi.h ****          *  Errors are indicated by a leading E and cause an immediate exit.
  42:../../Documents/Daisy/DaisyExamples/libdaisy//src/per/qspi.h ****          * 
  43:../../Documents/Daisy/DaisyExamples/libdaisy//src/per/qspi.h ****          *  \param GOOD - No errors have been reported.
  44:../../Documents/Daisy/DaisyExamples/libdaisy//src/per/qspi.h ****          *  \param E_HAL_ERROR - HAL code did not return HAL_OK.
  45:../../Documents/Daisy/DaisyExamples/libdaisy//src/per/qspi.h ****          *  \param E_SWITCHING_MODES - An error was encountered while switching QSPI peripheral mod
  46:../../Documents/Daisy/DaisyExamples/libdaisy//src/per/qspi.h ****          *  \param E_INVALID_MODE - QSPI should not be written to while the program is executing fr
  47:../../Documents/Daisy/DaisyExamples/libdaisy//src/per/qspi.h ****          */
  48:../../Documents/Daisy/DaisyExamples/libdaisy//src/per/qspi.h ****     enum Status
  49:../../Documents/Daisy/DaisyExamples/libdaisy//src/per/qspi.h ****     {
  50:../../Documents/Daisy/DaisyExamples/libdaisy//src/per/qspi.h ****         GOOD = 0,
  51:../../Documents/Daisy/DaisyExamples/libdaisy//src/per/qspi.h ****         E_HAL_ERROR,
  52:../../Documents/Daisy/DaisyExamples/libdaisy//src/per/qspi.h ****         E_SWITCHING_MODES,
  53:../../Documents/Daisy/DaisyExamples/libdaisy//src/per/qspi.h ****         E_INVALID_MODE,
  54:../../Documents/Daisy/DaisyExamples/libdaisy//src/per/qspi.h ****     };
  55:../../Documents/Daisy/DaisyExamples/libdaisy//src/per/qspi.h **** 
  56:../../Documents/Daisy/DaisyExamples/libdaisy//src/per/qspi.h ****     /** Configuration structure for interfacing with QSPI Driver */
  57:../../Documents/Daisy/DaisyExamples/libdaisy//src/per/qspi.h ****     struct Config
  58:../../Documents/Daisy/DaisyExamples/libdaisy//src/per/qspi.h ****     {
  59:../../Documents/Daisy/DaisyExamples/libdaisy//src/per/qspi.h ****         /** Flash Devices supported. (Both of these are more-or-less the same, just different sizes
  60:../../Documents/Daisy/DaisyExamples/libdaisy//src/per/qspi.h ****         enum Device
  61:../../Documents/Daisy/DaisyExamples/libdaisy//src/per/qspi.h ****         {
  62:../../Documents/Daisy/DaisyExamples/libdaisy//src/per/qspi.h ****             IS25LP080D,  /**< & */
  63:../../Documents/Daisy/DaisyExamples/libdaisy//src/per/qspi.h ****             IS25LP064A,  /**< & */
  64:../../Documents/Daisy/DaisyExamples/libdaisy//src/per/qspi.h ****             DEVICE_LAST, /**< & */
  65:../../Documents/Daisy/DaisyExamples/libdaisy//src/per/qspi.h ****         };
  66:../../Documents/Daisy/DaisyExamples/libdaisy//src/per/qspi.h **** 
  67:../../Documents/Daisy/DaisyExamples/libdaisy//src/per/qspi.h ****         /** 
  68:../../Documents/Daisy/DaisyExamples/libdaisy//src/per/qspi.h ****         Modes of operation.
  69:../../Documents/Daisy/DaisyExamples/libdaisy//src/per/qspi.h ****         Memory Mapped mode: QSPI configured so that the QSPI can be
  70:../../Documents/Daisy/DaisyExamples/libdaisy//src/per/qspi.h ****         read from starting address 0x90000000. Writing is not
  71:../../Documents/Daisy/DaisyExamples/libdaisy//src/per/qspi.h ****         possible in this mode. \n 
  72:../../Documents/Daisy/DaisyExamples/libdaisy//src/per/qspi.h ****         Indirect Polling mode: Device driver enabled. 
  73:../../Documents/Daisy/DaisyExamples/libdaisy//src/per/qspi.h ****         */
  74:../../Documents/Daisy/DaisyExamples/libdaisy//src/per/qspi.h ****         enum Mode
  75:../../Documents/Daisy/DaisyExamples/libdaisy//src/per/qspi.h ****         {
  76:../../Documents/Daisy/DaisyExamples/libdaisy//src/per/qspi.h ****             MEMORY_MAPPED,    /**< & */
  77:../../Documents/Daisy/DaisyExamples/libdaisy//src/per/qspi.h ****             INDIRECT_POLLING, /**< & */
  78:../../Documents/Daisy/DaisyExamples/libdaisy//src/per/qspi.h ****             MODE_LAST,
  79:../../Documents/Daisy/DaisyExamples/libdaisy//src/per/qspi.h ****         };
  80:../../Documents/Daisy/DaisyExamples/libdaisy//src/per/qspi.h **** 
  81:../../Documents/Daisy/DaisyExamples/libdaisy//src/per/qspi.h ****         //SCK,  CE# (active low)
  82:../../Documents/Daisy/DaisyExamples/libdaisy//src/per/qspi.h ****         struct
  83:../../Documents/Daisy/DaisyExamples/libdaisy//src/per/qspi.h ****         {
  84:../../Documents/Daisy/DaisyExamples/libdaisy//src/per/qspi.h ****             dsy_gpio_pin io0; /**< & */
  85:../../Documents/Daisy/DaisyExamples/libdaisy//src/per/qspi.h ****             dsy_gpio_pin io1; /**< & */
  86:../../Documents/Daisy/DaisyExamples/libdaisy//src/per/qspi.h ****             dsy_gpio_pin io2; /**< & */
  87:../../Documents/Daisy/DaisyExamples/libdaisy//src/per/qspi.h ****             dsy_gpio_pin io3; /**< & */
  88:../../Documents/Daisy/DaisyExamples/libdaisy//src/per/qspi.h ****             dsy_gpio_pin clk; /**< & */
  89:../../Documents/Daisy/DaisyExamples/libdaisy//src/per/qspi.h ****             dsy_gpio_pin ncs; /**< & */
ARM GAS  /var/folders/j4/zsgv5hks61j070b3g480n1j40000gn/T//ccPhVAM6.s 			page 29


  90:../../Documents/Daisy/DaisyExamples/libdaisy//src/per/qspi.h ****         } pin_config;
  91:../../Documents/Daisy/DaisyExamples/libdaisy//src/per/qspi.h **** 
  92:../../Documents/Daisy/DaisyExamples/libdaisy//src/per/qspi.h ****         Device device;
  93:../../Documents/Daisy/DaisyExamples/libdaisy//src/per/qspi.h ****         Mode   mode;
  94:../../Documents/Daisy/DaisyExamples/libdaisy//src/per/qspi.h ****     };
  95:../../Documents/Daisy/DaisyExamples/libdaisy//src/per/qspi.h **** 
  96:../../Documents/Daisy/DaisyExamples/libdaisy//src/per/qspi.h ****     /** 
  97:../../Documents/Daisy/DaisyExamples/libdaisy//src/per/qspi.h ****         Initializes QSPI peripheral, and Resets, and prepares memory for access.
  98:../../Documents/Daisy/DaisyExamples/libdaisy//src/per/qspi.h ****         \param config should be populated with the mode, device and pin_config before calling this 
  99:../../Documents/Daisy/DaisyExamples/libdaisy//src/per/qspi.h ****         \return Result::OK or Result::ERR
 100:../../Documents/Daisy/DaisyExamples/libdaisy//src/per/qspi.h ****         */
 101:../../Documents/Daisy/DaisyExamples/libdaisy//src/per/qspi.h ****     Result Init(const Config& config);
 102:../../Documents/Daisy/DaisyExamples/libdaisy//src/per/qspi.h **** 
 103:../../Documents/Daisy/DaisyExamples/libdaisy//src/per/qspi.h ****     /** Returns the current config. */
 104:../../Documents/Daisy/DaisyExamples/libdaisy//src/per/qspi.h ****     const Config& GetConfig() const;
 105:../../Documents/Daisy/DaisyExamples/libdaisy//src/per/qspi.h **** 
 106:../../Documents/Daisy/DaisyExamples/libdaisy//src/per/qspi.h ****     // Couldn't this just be called before anything else in init? That
 107:../../Documents/Daisy/DaisyExamples/libdaisy//src/per/qspi.h ****     // would make manually calling it unnecessary.
 108:../../Documents/Daisy/DaisyExamples/libdaisy//src/per/qspi.h ****     /** 
 109:../../Documents/Daisy/DaisyExamples/libdaisy//src/per/qspi.h ****         Deinitializes the peripheral
 110:../../Documents/Daisy/DaisyExamples/libdaisy//src/per/qspi.h ****         This should be called before reinitializing QSPI in a different mode.
 111:../../Documents/Daisy/DaisyExamples/libdaisy//src/per/qspi.h ****         \return Result::OK or Result::ERR
 112:../../Documents/Daisy/DaisyExamples/libdaisy//src/per/qspi.h ****         */
 113:../../Documents/Daisy/DaisyExamples/libdaisy//src/per/qspi.h ****     Result DeInit();
 114:../../Documents/Daisy/DaisyExamples/libdaisy//src/per/qspi.h **** 
 115:../../Documents/Daisy/DaisyExamples/libdaisy//src/per/qspi.h ****     /** 
 116:../../Documents/Daisy/DaisyExamples/libdaisy//src/per/qspi.h ****         Writes a single page to to the specified address on the QSPI chip.
 117:../../Documents/Daisy/DaisyExamples/libdaisy//src/per/qspi.h ****         For IS25LP*, page size is 256 bytes.
 118:../../Documents/Daisy/DaisyExamples/libdaisy//src/per/qspi.h ****         \param address Address to write to
 119:../../Documents/Daisy/DaisyExamples/libdaisy//src/per/qspi.h ****         \param size Buffer size
 120:../../Documents/Daisy/DaisyExamples/libdaisy//src/per/qspi.h ****         \param buffer Buffer to write
 121:../../Documents/Daisy/DaisyExamples/libdaisy//src/per/qspi.h ****         \return Result::OK or Result::ERR
 122:../../Documents/Daisy/DaisyExamples/libdaisy//src/per/qspi.h ****         */
 123:../../Documents/Daisy/DaisyExamples/libdaisy//src/per/qspi.h ****     Result WritePage(uint32_t address, uint32_t size, uint8_t* buffer);
 124:../../Documents/Daisy/DaisyExamples/libdaisy//src/per/qspi.h **** 
 125:../../Documents/Daisy/DaisyExamples/libdaisy//src/per/qspi.h ****     /** 
 126:../../Documents/Daisy/DaisyExamples/libdaisy//src/per/qspi.h ****         Writes data in buffer to to the QSPI. Starting at address to address+size 
 127:../../Documents/Daisy/DaisyExamples/libdaisy//src/per/qspi.h ****         \param address Address to write to
 128:../../Documents/Daisy/DaisyExamples/libdaisy//src/per/qspi.h ****         \param size Buffer size
 129:../../Documents/Daisy/DaisyExamples/libdaisy//src/per/qspi.h ****         \param buffer Buffer to write
 130:../../Documents/Daisy/DaisyExamples/libdaisy//src/per/qspi.h ****         \return Result::OK or Result::ERR
 131:../../Documents/Daisy/DaisyExamples/libdaisy//src/per/qspi.h ****         */
 132:../../Documents/Daisy/DaisyExamples/libdaisy//src/per/qspi.h ****     Result Write(uint32_t address, uint32_t size, uint8_t* buffer);
 133:../../Documents/Daisy/DaisyExamples/libdaisy//src/per/qspi.h **** 
 134:../../Documents/Daisy/DaisyExamples/libdaisy//src/per/qspi.h ****     /** 
 135:../../Documents/Daisy/DaisyExamples/libdaisy//src/per/qspi.h ****         Erases the area specified on the chip.
 136:../../Documents/Daisy/DaisyExamples/libdaisy//src/per/qspi.h ****         Erasures will happen by 4K, 32K or 64K increments.
 137:../../Documents/Daisy/DaisyExamples/libdaisy//src/per/qspi.h ****         Smallest erase possible is 4kB at a time. (on IS25LP*)
 138:../../Documents/Daisy/DaisyExamples/libdaisy//src/per/qspi.h ****         \param start_addr Address to begin erasing from
 139:../../Documents/Daisy/DaisyExamples/libdaisy//src/per/qspi.h ****         \param end_addr  Address to stop erasing at
 140:../../Documents/Daisy/DaisyExamples/libdaisy//src/per/qspi.h ****         \return Result::OK or Result::ERR
 141:../../Documents/Daisy/DaisyExamples/libdaisy//src/per/qspi.h ****         */
 142:../../Documents/Daisy/DaisyExamples/libdaisy//src/per/qspi.h ****     Result Erase(uint32_t start_addr, uint32_t end_addr);
 143:../../Documents/Daisy/DaisyExamples/libdaisy//src/per/qspi.h **** 
 144:../../Documents/Daisy/DaisyExamples/libdaisy//src/per/qspi.h ****     /**  
 145:../../Documents/Daisy/DaisyExamples/libdaisy//src/per/qspi.h ****          Erases a single sector of the chip.  
 146:../../Documents/Daisy/DaisyExamples/libdaisy//src/per/qspi.h ****         TODO: Document the size of this function. 
ARM GAS  /var/folders/j4/zsgv5hks61j070b3g480n1j40000gn/T//ccPhVAM6.s 			page 30


 147:../../Documents/Daisy/DaisyExamples/libdaisy//src/per/qspi.h ****         \param addr Address of sector to erase
 148:../../Documents/Daisy/DaisyExamples/libdaisy//src/per/qspi.h ****         \return Result::OK or Result::ERR
 149:../../Documents/Daisy/DaisyExamples/libdaisy//src/per/qspi.h ****         */
 150:../../Documents/Daisy/DaisyExamples/libdaisy//src/per/qspi.h ****     Result EraseSector(uint32_t address);
 151:../../Documents/Daisy/DaisyExamples/libdaisy//src/per/qspi.h **** 
 152:../../Documents/Daisy/DaisyExamples/libdaisy//src/per/qspi.h ****     /** Returns the current class status. Useful for debugging.
 153:../../Documents/Daisy/DaisyExamples/libdaisy//src/per/qspi.h ****      *  \returns Status
 154:../../Documents/Daisy/DaisyExamples/libdaisy//src/per/qspi.h ****      */
 155:../../Documents/Daisy/DaisyExamples/libdaisy//src/per/qspi.h ****     Status GetStatus();
 156:../../Documents/Daisy/DaisyExamples/libdaisy//src/per/qspi.h **** 
 157:../../Documents/Daisy/DaisyExamples/libdaisy//src/per/qspi.h ****     /** Returns a pointer to the actual memory used 
 158:../../Documents/Daisy/DaisyExamples/libdaisy//src/per/qspi.h ****      *  The memory at this address is read-only
 159:../../Documents/Daisy/DaisyExamples/libdaisy//src/per/qspi.h ****      *  to write to it use the Write function.
 160:../../Documents/Daisy/DaisyExamples/libdaisy//src/per/qspi.h ****      * 
 161:../../Documents/Daisy/DaisyExamples/libdaisy//src/per/qspi.h ****      *  \param offset returns the pointer starting this 
 162:../../Documents/Daisy/DaisyExamples/libdaisy//src/per/qspi.h ****      *                many bytes into the memory
 163:../../Documents/Daisy/DaisyExamples/libdaisy//src/per/qspi.h ****     */
 164:../../Documents/Daisy/DaisyExamples/libdaisy//src/per/qspi.h ****     void* GetData(uint32_t offset = 0);
 165:../../Documents/Daisy/DaisyExamples/libdaisy//src/per/qspi.h **** 
 166:../../Documents/Daisy/DaisyExamples/libdaisy//src/per/qspi.h ****     QSPIHandle() : pimpl_(nullptr) {}
 832              		.loc 8 166 5 view .LVU221
 833              	.LBE204:
 834              	.LBE203:
 835              	.LBE202:
 836              	.LBE201:
 837              	.LBE200:
 838              		.loc 6 98 1 is_stmt 0 view .LVU222
 839 0000 10B5     		push	{r4, lr}
 840              		.cfi_def_cfa_offset 8
 841              		.cfi_offset 4, -8
 842              		.cfi_offset 14, -4
 843              	.LBB226:
 844              	.LBB224:
 845              	.LBB222:
 846              	.LBB220:
 847              	.LBB209:
 848              	.LBB205:
 849              	.LBB206:
 850              		.loc 8 166 34 view .LVU223
 851 0002 0848     		ldr	r0, .L36
 852 0004 0024     		movs	r4, #0
 853              	.LBE206:
 854              	.LBE205:
 855              	.LBE209:
 856              	.LBE220:
 857              	.LBE222:
   7:DaisyDrone.cpp **** 
 858              		.loc 6 7 11 view .LVU224
 859 0006 084A     		ldr	r2, .L36+4
 860 0008 0849     		ldr	r1, .L36+8
 861              	.LBB223:
 862              	.LBB221:
 863              	.LBB210:
 864              	.LBB208:
 865              	.LBB207:
 866              		.loc 8 166 34 view .LVU225
 867 000a 0460     		str	r4, [r0]
ARM GAS  /var/folders/j4/zsgv5hks61j070b3g480n1j40000gn/T//ccPhVAM6.s 			page 31


 868              	.LVL53:
 869              		.loc 8 166 34 view .LVU226
 870              	.LBE207:
 871              	.LBE208:
 872              	.LBE210:
 873              	.LBB211:
 874              	.LBI211:
  62:../../Documents/Daisy/DaisyExamples/libdaisy//src/hid/audio.h ****     ~AudioHandle() {}
 875              		.loc 5 62 5 is_stmt 1 view .LVU227
 876              	.LBB212:
 877              	.LBB213:
  62:../../Documents/Daisy/DaisyExamples/libdaisy//src/hid/audio.h ****     ~AudioHandle() {}
 878              		.loc 5 62 35 is_stmt 0 view .LVU228
 879 000c 4461     		str	r4, [r0, #20]
 880              	.LVL54:
  62:../../Documents/Daisy/DaisyExamples/libdaisy//src/hid/audio.h ****     ~AudioHandle() {}
 881              		.loc 5 62 35 view .LVU229
 882              	.LBE213:
 883              	.LBE212:
 884              	.LBE211:
 885              	.LBB214:
 886              	.LBI214:
  84:../../Documents/Daisy/DaisyExamples/libdaisy//src/per/adc.h ****     ~AdcHandle() {}
 887              		.loc 4 84 5 is_stmt 1 view .LVU230
  84:../../Documents/Daisy/DaisyExamples/libdaisy//src/per/adc.h ****     ~AdcHandle() {}
 888              		.loc 4 84 5 is_stmt 0 view .LVU231
 889              	.LBE214:
 890              	.LBB215:
 891              	.LBI215:
 892              		.file 9 "../../Documents/Daisy/DaisyExamples/libdaisy//src/per/dac.h"
   1:../../Documents/Daisy/DaisyExamples/libdaisy//src/per/dac.h **** #pragma once
   2:../../Documents/Daisy/DaisyExamples/libdaisy//src/per/dac.h **** #ifndef DSY_DAC_H
   3:../../Documents/Daisy/DaisyExamples/libdaisy//src/per/dac.h **** #define DSY_DAC_H
   4:../../Documents/Daisy/DaisyExamples/libdaisy//src/per/dac.h **** 
   5:../../Documents/Daisy/DaisyExamples/libdaisy//src/per/dac.h **** #include "daisy_core.h"
   6:../../Documents/Daisy/DaisyExamples/libdaisy//src/per/dac.h **** 
   7:../../Documents/Daisy/DaisyExamples/libdaisy//src/per/dac.h **** namespace daisy
   8:../../Documents/Daisy/DaisyExamples/libdaisy//src/per/dac.h **** {
   9:../../Documents/Daisy/DaisyExamples/libdaisy//src/per/dac.h **** /** DAC handle for Built-in DAC Peripheral 
  10:../../Documents/Daisy/DaisyExamples/libdaisy//src/per/dac.h ****  ** 
  11:../../Documents/Daisy/DaisyExamples/libdaisy//src/per/dac.h ****  ** For now only Normal Mode is supported,
  12:../../Documents/Daisy/DaisyExamples/libdaisy//src/per/dac.h ****  ** Sample and hold mode provides reduced power consumption, but requires a bit more setup.
  13:../../Documents/Daisy/DaisyExamples/libdaisy//src/per/dac.h ****  **
  14:../../Documents/Daisy/DaisyExamples/libdaisy//src/per/dac.h ****  ** For now connecting the DAC through other internal periphearls is also not supported.
  15:../../Documents/Daisy/DaisyExamples/libdaisy//src/per/dac.h ****  **
  16:../../Documents/Daisy/DaisyExamples/libdaisy//src/per/dac.h ****  ** Since the DAC channels have dedicated pins we don't need to pass in a pin config like with
  17:../../Documents/Daisy/DaisyExamples/libdaisy//src/per/dac.h ****  ** other modules. However, it is still important to not try to use the DAC pins for anything else.
  18:../../Documents/Daisy/DaisyExamples/libdaisy//src/per/dac.h ****  ** DAC Channel 1 is on PA4, and DAC Channel 2 is on PA5
  19:../../Documents/Daisy/DaisyExamples/libdaisy//src/per/dac.h ****  ***/
  20:../../Documents/Daisy/DaisyExamples/libdaisy//src/per/dac.h **** class DacHandle
  21:../../Documents/Daisy/DaisyExamples/libdaisy//src/per/dac.h **** {
  22:../../Documents/Daisy/DaisyExamples/libdaisy//src/per/dac.h ****   public:
  23:../../Documents/Daisy/DaisyExamples/libdaisy//src/per/dac.h ****     /** Return Values for the DacHandle class */
  24:../../Documents/Daisy/DaisyExamples/libdaisy//src/per/dac.h ****     enum class Result
  25:../../Documents/Daisy/DaisyExamples/libdaisy//src/per/dac.h ****     {
  26:../../Documents/Daisy/DaisyExamples/libdaisy//src/per/dac.h ****         OK,
  27:../../Documents/Daisy/DaisyExamples/libdaisy//src/per/dac.h ****         ERR,
ARM GAS  /var/folders/j4/zsgv5hks61j070b3g480n1j40000gn/T//ccPhVAM6.s 			page 32


  28:../../Documents/Daisy/DaisyExamples/libdaisy//src/per/dac.h ****     };
  29:../../Documents/Daisy/DaisyExamples/libdaisy//src/per/dac.h **** 
  30:../../Documents/Daisy/DaisyExamples/libdaisy//src/per/dac.h ****     /** Selects which channel(s) will be configured for use. */
  31:../../Documents/Daisy/DaisyExamples/libdaisy//src/per/dac.h ****     enum class Channel
  32:../../Documents/Daisy/DaisyExamples/libdaisy//src/per/dac.h ****     {
  33:../../Documents/Daisy/DaisyExamples/libdaisy//src/per/dac.h ****         ONE,
  34:../../Documents/Daisy/DaisyExamples/libdaisy//src/per/dac.h ****         TWO,
  35:../../Documents/Daisy/DaisyExamples/libdaisy//src/per/dac.h ****         BOTH,
  36:../../Documents/Daisy/DaisyExamples/libdaisy//src/per/dac.h ****     };
  37:../../Documents/Daisy/DaisyExamples/libdaisy//src/per/dac.h **** 
  38:../../Documents/Daisy/DaisyExamples/libdaisy//src/per/dac.h ****     /** Sets the Mode for the DAC channels.
  39:../../Documents/Daisy/DaisyExamples/libdaisy//src/per/dac.h ****      **
  40:../../Documents/Daisy/DaisyExamples/libdaisy//src/per/dac.h ****      ** Polling mode uses the blocking mode to transmit a single value at a time.
  41:../../Documents/Daisy/DaisyExamples/libdaisy//src/per/dac.h ****      **
  42:../../Documents/Daisy/DaisyExamples/libdaisy//src/per/dac.h ****      ** DMA mode uses a buffer, and periodically transmits it triggering a 
  43:../../Documents/Daisy/DaisyExamples/libdaisy//src/per/dac.h ****      ** callback to fill the buffer when it is ready for more samples.
  44:../../Documents/Daisy/DaisyExamples/libdaisy//src/per/dac.h ****      ***/
  45:../../Documents/Daisy/DaisyExamples/libdaisy//src/per/dac.h ****     enum class Mode
  46:../../Documents/Daisy/DaisyExamples/libdaisy//src/per/dac.h ****     {
  47:../../Documents/Daisy/DaisyExamples/libdaisy//src/per/dac.h ****         POLLING,
  48:../../Documents/Daisy/DaisyExamples/libdaisy//src/per/dac.h ****         DMA,
  49:../../Documents/Daisy/DaisyExamples/libdaisy//src/per/dac.h ****     };
  50:../../Documents/Daisy/DaisyExamples/libdaisy//src/per/dac.h **** 
  51:../../Documents/Daisy/DaisyExamples/libdaisy//src/per/dac.h ****     /** Sets the number of bits per sample transmitted out of the DAC.
  52:../../Documents/Daisy/DaisyExamples/libdaisy//src/per/dac.h ****      ** The output range will be: 0V - VDDA
  53:../../Documents/Daisy/DaisyExamples/libdaisy//src/per/dac.h ****      ** The resolution will be roughly: bitdepth / (VDDA - 0V) 
  54:../../Documents/Daisy/DaisyExamples/libdaisy//src/per/dac.h ****      ***/
  55:../../Documents/Daisy/DaisyExamples/libdaisy//src/per/dac.h ****     enum class BitDepth
  56:../../Documents/Daisy/DaisyExamples/libdaisy//src/per/dac.h ****     {
  57:../../Documents/Daisy/DaisyExamples/libdaisy//src/per/dac.h ****         BITS_8,
  58:../../Documents/Daisy/DaisyExamples/libdaisy//src/per/dac.h ****         BITS_12
  59:../../Documents/Daisy/DaisyExamples/libdaisy//src/per/dac.h ****     };
  60:../../Documents/Daisy/DaisyExamples/libdaisy//src/per/dac.h **** 
  61:../../Documents/Daisy/DaisyExamples/libdaisy//src/per/dac.h ****     /** Sets whether the DAC output is buffered for higher drive ability. */
  62:../../Documents/Daisy/DaisyExamples/libdaisy//src/per/dac.h ****     enum class BufferState
  63:../../Documents/Daisy/DaisyExamples/libdaisy//src/per/dac.h ****     {
  64:../../Documents/Daisy/DaisyExamples/libdaisy//src/per/dac.h ****         ENABLED,
  65:../../Documents/Daisy/DaisyExamples/libdaisy//src/per/dac.h ****         DISABLED,
  66:../../Documents/Daisy/DaisyExamples/libdaisy//src/per/dac.h ****     };
  67:../../Documents/Daisy/DaisyExamples/libdaisy//src/per/dac.h **** 
  68:../../Documents/Daisy/DaisyExamples/libdaisy//src/per/dac.h ****     /** Configuration structure for initializing the DAC structure. */
  69:../../Documents/Daisy/DaisyExamples/libdaisy//src/per/dac.h ****     struct Config
  70:../../Documents/Daisy/DaisyExamples/libdaisy//src/per/dac.h ****     {
  71:../../Documents/Daisy/DaisyExamples/libdaisy//src/per/dac.h ****         /** Target Samplerate in Hz used to configure the internal 
  72:../../Documents/Daisy/DaisyExamples/libdaisy//src/per/dac.h ****          ** timebase for DMA mode. Does nothing in POLLING mode.
  73:../../Documents/Daisy/DaisyExamples/libdaisy//src/per/dac.h ****          ** If the value is 0 at Init time this will default to 48000Hz 
  74:../../Documents/Daisy/DaisyExamples/libdaisy//src/per/dac.h ****          ** otherwise the driver will attempt meet the target.*/
  75:../../Documents/Daisy/DaisyExamples/libdaisy//src/per/dac.h ****         uint32_t target_samplerate;
  76:../../Documents/Daisy/DaisyExamples/libdaisy//src/per/dac.h **** 
  77:../../Documents/Daisy/DaisyExamples/libdaisy//src/per/dac.h ****         Channel     chn;
  78:../../Documents/Daisy/DaisyExamples/libdaisy//src/per/dac.h ****         Mode        mode;
  79:../../Documents/Daisy/DaisyExamples/libdaisy//src/per/dac.h ****         BitDepth    bitdepth;
  80:../../Documents/Daisy/DaisyExamples/libdaisy//src/per/dac.h ****         BufferState buff_state;
  81:../../Documents/Daisy/DaisyExamples/libdaisy//src/per/dac.h ****     };
  82:../../Documents/Daisy/DaisyExamples/libdaisy//src/per/dac.h **** 
  83:../../Documents/Daisy/DaisyExamples/libdaisy//src/per/dac.h ****     DacHandle() : pimpl_(nullptr) {}
 893              		.loc 9 83 5 is_stmt 1 view .LVU232
ARM GAS  /var/folders/j4/zsgv5hks61j070b3g480n1j40000gn/T//ccPhVAM6.s 			page 33


 894              	.LBB216:
 895              	.LBB217:
 896              		.loc 9 83 33 is_stmt 0 view .LVU233
 897 000e 0462     		str	r4, [r0, #32]
 898              	.LVL55:
 899              		.loc 9 83 33 view .LVU234
 900              	.LBE217:
 901              	.LBE216:
 902              	.LBE215:
 903              	.LBB218:
 904              	.LBI218:
  40:../../Documents/Daisy/DaisyExamples/libdaisy//src/hid/usb.h **** 
 905              		.loc 3 40 5 is_stmt 1 view .LVU235
  40:../../Documents/Daisy/DaisyExamples/libdaisy//src/hid/usb.h **** 
 906              		.loc 3 40 5 is_stmt 0 view .LVU236
 907              	.LBE218:
 908              	.LBB219:
 909              	.LBI219:
  77:../../Documents/Daisy/DaisyExamples/libdaisy//src/sys/system.h ****     ~System() {}
 910              		.loc 2 77 5 is_stmt 1 view .LVU237
  77:../../Documents/Daisy/DaisyExamples/libdaisy//src/sys/system.h ****     ~System() {}
 911              		.loc 2 77 5 is_stmt 0 view .LVU238
 912              	.LBE219:
 913              	.LBE221:
 914              	.LBE223:
   7:DaisyDrone.cpp **** 
 915              		.loc 6 7 11 view .LVU239
 916 0010 FFF7FEFF 		bl	__aeabi_atexit
 917              	.LVL56:
  11:DaisyDrone.cpp **** 
 918              		.loc 6 11 33 is_stmt 1 view .LVU240
  11:DaisyDrone.cpp **** 
 919              		.loc 6 11 12 is_stmt 0 view .LVU241
 920 0014 2046     		mov	r0, r4
 921 0016 044A     		ldr	r2, .L36+4
 922 0018 0549     		ldr	r1, .L36+12
 923              	.LBE224:
 924              	.LBE226:
 925              		.loc 6 98 1 view .LVU242
 926 001a BDE81040 		pop	{r4, lr}
 927              		.cfi_restore 14
 928              		.cfi_restore 4
 929              		.cfi_def_cfa_offset 0
 930              	.LBB227:
 931              	.LBB225:
  11:DaisyDrone.cpp **** 
 932              		.loc 6 11 12 view .LVU243
 933 001e FFF7FEBF 		b	__aeabi_atexit
 934              	.LVL57:
 935              	.L37:
 936 0022 00BF     		.align	2
 937              	.L36:
 938 0024 00000000 		.word	.LANCHOR1
 939 0028 00000000 		.word	__dso_handle
 940 002c 00000000 		.word	_ZN5daisy9DaisySeedD1Ev
 941 0030 00000000 		.word	__tcf_0
 942              	.LBE225:
ARM GAS  /var/folders/j4/zsgv5hks61j070b3g480n1j40000gn/T//ccPhVAM6.s 			page 34


 943              	.LBE227:
 944              		.cfi_endproc
 945              	.LFE4832:
 947              		.section	.init_array,"aw",%init_array
 948              		.align	2
 949 0000 00000000 		.word	_GLOBAL__sub_I_hw(target1)
 950              		.global	oscillators
 951              		.global	hw
 952              		.section	.rodata
 953              		.align	2
 954              		.set	.LANCHOR2,. + 0
 955              	.LC0:
 956 0000 00000000 		.word	0
 957 0004 03000000 		.word	3
 958 0008 07000000 		.word	7
 959 000c 0C000000 		.word	12
 960              		.section	.bss.hw,"aw",%nobits
 961              		.align	2
 962              		.set	.LANCHOR1,. + 0
 965              	hw:
 966 0000 00000000 		.space	60
 966      00000000 
 966      00000000 
 966      00000000 
 966      00000000 
 967              		.section	.bss.oscillators,"aw",%nobits
 968              		.align	2
 969              		.set	.LANCHOR0,. + 0
 972              	oscillators:
 973 0000 00000000 		.space	80
 973      00000000 
 973      00000000 
 973      00000000 
 973      00000000 
 974              		.text
 975              	.Letext0:
 976              		.file 10 "/Applications/ARM/arm-none-eabi/include/machine/_default_types.h"
 977              		.file 11 "/Applications/ARM/arm-none-eabi/include/sys/_stdint.h"
 978              		.file 12 "/Applications/ARM/arm-none-eabi/include/stdint.h"
 979              		.file 13 "/Applications/ARM/lib/gcc/arm-none-eabi/10.3.1/include/stddef.h"
 980              		.file 14 "/Applications/ARM/arm-none-eabi/include/c++/10.3.1/cmath"
 981              		.file 15 "/Applications/ARM/arm-none-eabi/include/c++/10.3.1/bits/std_abs.h"
 982              		.file 16 "/Applications/ARM/arm-none-eabi/include/c++/10.3.1/cstdlib"
 983              		.file 17 "/Applications/ARM/arm-none-eabi/include/c++/10.3.1/cstdint"
 984              		.file 18 "/Applications/ARM/arm-none-eabi/include/c++/10.3.1/type_traits"
 985              		.file 19 "/Applications/ARM/arm-none-eabi/include/c++/10.3.1/debug/debug.h"
 986              		.file 20 "/Applications/ARM/arm-none-eabi/include/c++/10.3.1/arm-none-eabi/thumb/v7e-m+dp/hard/bit
 987              		.file 21 "/Applications/ARM/arm-none-eabi/include/c++/10.3.1/bits/algorithmfwd.h"
 988              		.file 22 "/Applications/ARM/arm-none-eabi/include/c++/10.3.1/bits/stl_pair.h"
 989              		.file 23 "/Applications/ARM/arm-none-eabi/include/c++/10.3.1/bits/exception_ptr.h"
 990              		.file 24 "/Applications/ARM/arm-none-eabi/include/c++/10.3.1/cstdarg"
 991              		.file 25 "/Applications/ARM/arm-none-eabi/include/c++/10.3.1/cstdio"
 992              		.file 26 "/Applications/ARM/arm-none-eabi/include/c++/10.3.1/cwchar"
 993              		.file 27 "/Applications/ARM/arm-none-eabi/include/c++/10.3.1/clocale"
 994              		.file 28 "/Applications/ARM/arm-none-eabi/include/c++/10.3.1/bits/basic_string.h"
 995              		.file 29 "/Applications/ARM/arm-none-eabi/include/c++/10.3.1/bits/stl_iterator.h"
 996              		.file 30 "/Applications/ARM/arm-none-eabi/include/c++/10.3.1/cstring"
ARM GAS  /var/folders/j4/zsgv5hks61j070b3g480n1j40000gn/T//ccPhVAM6.s 			page 35


 997              		.file 31 "/Applications/ARM/arm-none-eabi/include/c++/10.3.1/bits/predefined_ops.h"
 998              		.file 32 "/Applications/ARM/arm-none-eabi/include/sys/_types.h"
 999              		.file 33 "/Applications/ARM/arm-none-eabi/include/sys/reent.h"
 1000              		.file 34 "/Applications/ARM/arm-none-eabi/include/sys/lock.h"
 1001              		.file 35 "/Applications/ARM/arm-none-eabi/include/math.h"
 1002              		.file 36 "/Applications/ARM/arm-none-eabi/include/stdlib.h"
 1003              		.file 37 "/Applications/ARM/arm-none-eabi/include/c++/10.3.1/math.h"
 1004              		.file 38 "/Applications/ARM/arm-none-eabi/include/c++/10.3.1/stdlib.h"
 1005              		.file 39 "../../Documents/Daisy/DaisyExamples/libdaisy//src/daisy_core.h"
 1006              		.file 40 "../../Documents/Daisy/DaisyExamples/libdaisy//src/per/tim.h"
 1007              		.file 41 "../../Documents/Daisy/DaisyExamples/libdaisy//src/per/sai.h"
 1008              		.file 42 "../../Documents/Daisy/DaisyExamples/libdaisy//src/hid/logger_impl.h"
 1009              		.file 43 "../../Documents/Daisy/DaisyExamples/libdaisy//src/util/wav_format.h"
 1010              		.file 44 "../../Documents/Daisy/DaisyExamples/libdaisy//src/hid/logger.h"
 1011              		.file 45 "../../Documents/Daisy/DaisyExamples/libdaisy//src/per/gpio.h"
 1012              		.file 46 "../../Documents/Daisy/DaisyExamples/libdaisy//src/dev/sdram.h"
 1013              		.file 47 "/Applications/ARM/lib/gcc/arm-none-eabi/10.3.1/include/stdarg.h"
 1014              		.file 48 "/Applications/ARM/arm-none-eabi/include/stdio.h"
 1015              		.file 49 "../../Documents/Daisy/DaisyExamples/daisysp//Source/Control/adenv.h"
 1016              		.file 50 "../../Documents/Daisy/DaisyExamples/daisysp//Source/Utility/dsp.h"
 1017              		.file 51 "/Applications/ARM/arm-none-eabi/include/wchar.h"
 1018              		.file 52 "/Applications/ARM/arm-none-eabi/include/locale.h"
 1019              		.file 53 "/Applications/ARM/arm-none-eabi/include/string.h"
 1020              		.file 54 "../../Documents/Daisy/DaisyExamples/libdaisy//src/dev/sr_595.h"
 1021              		.file 55 "<built-in>"
ARM GAS  /var/folders/j4/zsgv5hks61j070b3g480n1j40000gn/T//ccPhVAM6.s 			page 36


DEFINED SYMBOLS
                            *ABS*:0000000000000000 DaisyDrone.cpp
/var/folders/j4/zsgv5hks61j070b3g480n1j40000gn/T//ccPhVAM6.s:19     .text._ZN5daisy9DaisySeedD2Ev:0000000000000000 $t
/var/folders/j4/zsgv5hks61j070b3g480n1j40000gn/T//ccPhVAM6.s:26     .text._ZN5daisy9DaisySeedD2Ev:0000000000000000 _ZN5daisy9DaisySeedD2Ev
/var/folders/j4/zsgv5hks61j070b3g480n1j40000gn/T//ccPhVAM6.s:26     .text._ZN5daisy9DaisySeedD2Ev:0000000000000000 _ZN5daisy9DaisySeedD1Ev
/var/folders/j4/zsgv5hks61j070b3g480n1j40000gn/T//ccPhVAM6.s:67     .text.__tcf_0:0000000000000000 $t
/var/folders/j4/zsgv5hks61j070b3g480n1j40000gn/T//ccPhVAM6.s:73     .text.__tcf_0:0000000000000000 __tcf_0
/var/folders/j4/zsgv5hks61j070b3g480n1j40000gn/T//ccPhVAM6.s:87     .text._Z14audio_callbackPKPKfPPfj:0000000000000000 $t
/var/folders/j4/zsgv5hks61j070b3g480n1j40000gn/T//ccPhVAM6.s:94     .text._Z14audio_callbackPKPKfPPfj:0000000000000000 _Z14audio_callbackPKPKfPPfj
/var/folders/j4/zsgv5hks61j070b3g480n1j40000gn/T//ccPhVAM6.s:206    .text._Z14audio_callbackPKPKfPPfj:0000000000000050 $d
/var/folders/j4/zsgv5hks61j070b3g480n1j40000gn/T//ccPhVAM6.s:213    .text._Z8init_adcv:0000000000000000 $t
/var/folders/j4/zsgv5hks61j070b3g480n1j40000gn/T//ccPhVAM6.s:220    .text._Z8init_adcv:0000000000000000 _Z8init_adcv
/var/folders/j4/zsgv5hks61j070b3g480n1j40000gn/T//ccPhVAM6.s:297    .text._Z8init_adcv:0000000000000048 $d
/var/folders/j4/zsgv5hks61j070b3g480n1j40000gn/T//ccPhVAM6.s:302    .rodata._Z9set_tonesf.str1.4:0000000000000000 $d
/var/folders/j4/zsgv5hks61j070b3g480n1j40000gn/T//ccPhVAM6.s:309    .text._Z9set_tonesf:0000000000000000 $t
/var/folders/j4/zsgv5hks61j070b3g480n1j40000gn/T//ccPhVAM6.s:316    .text._Z9set_tonesf:0000000000000000 _Z9set_tonesf
/var/folders/j4/zsgv5hks61j070b3g480n1j40000gn/T//ccPhVAM6.s:502    .text._Z9set_tonesf:0000000000000098 $d
/var/folders/j4/zsgv5hks61j070b3g480n1j40000gn/T//ccPhVAM6.s:511    .rodata.main.str1.4:0000000000000000 $d
/var/folders/j4/zsgv5hks61j070b3g480n1j40000gn/T//ccPhVAM6.s:515    .text.startup.main:0000000000000000 $t
/var/folders/j4/zsgv5hks61j070b3g480n1j40000gn/T//ccPhVAM6.s:522    .text.startup.main:0000000000000000 main
/var/folders/j4/zsgv5hks61j070b3g480n1j40000gn/T//ccPhVAM6.s:797    .text.startup.main:00000000000000b0 $d
/var/folders/j4/zsgv5hks61j070b3g480n1j40000gn/T//ccPhVAM6.s:808    .text.startup._GLOBAL__sub_I_hw:0000000000000000 $t
/var/folders/j4/zsgv5hks61j070b3g480n1j40000gn/T//ccPhVAM6.s:814    .text.startup._GLOBAL__sub_I_hw:0000000000000000 _GLOBAL__sub_I_hw
/var/folders/j4/zsgv5hks61j070b3g480n1j40000gn/T//ccPhVAM6.s:938    .text.startup._GLOBAL__sub_I_hw:0000000000000024 $d
/var/folders/j4/zsgv5hks61j070b3g480n1j40000gn/T//ccPhVAM6.s:948    .init_array:0000000000000000 $d
/var/folders/j4/zsgv5hks61j070b3g480n1j40000gn/T//ccPhVAM6.s:972    .bss.oscillators:0000000000000000 oscillators
/var/folders/j4/zsgv5hks61j070b3g480n1j40000gn/T//ccPhVAM6.s:965    .bss.hw:0000000000000000 hw
/var/folders/j4/zsgv5hks61j070b3g480n1j40000gn/T//ccPhVAM6.s:953    .rodata:0000000000000000 $d
/var/folders/j4/zsgv5hks61j070b3g480n1j40000gn/T//ccPhVAM6.s:961    .bss.hw:0000000000000000 $d
/var/folders/j4/zsgv5hks61j070b3g480n1j40000gn/T//ccPhVAM6.s:968    .bss.oscillators:0000000000000000 $d
                           .group:0000000000000000 _ZN5daisy9DaisySeedD5Ev

UNDEFINED SYMBOLS
_ZN7daisysp10Oscillator7ProcessEv
_ZN5daisy9DaisySeed6GetPinEh
_ZN5daisy16AdcChannelConfig10InitSingleE12dsy_gpio_pin
_ZN5daisy9AdcHandle4InitEPNS_16AdcChannelConfigEjNS0_12OverSamplingE
_ZN5daisy9AdcHandle5StartEv
_ZN5daisy6LoggerILNS_17LoggerDestinationE1EE9PrintLineEPKcz
powf
_ZN7daisysp10Oscillator12CalcPhaseIncEf
_ZN5daisy9DaisySeed9ConfigureEv
_ZN5daisy9DaisySeed4InitEb
_ZN5daisy6LoggerILNS_17LoggerDestinationE1EE8StartLogEb
_ZN5daisy9DaisySeed15AudioSampleRateEv
_ZN5daisy9DaisySeed10StartAudioEPFvPKPKfPPfjE
_ZNK5daisy9AdcHandle8GetFloatEh
_ZN5daisy6System5DelayEm
__aeabi_atexit
__dso_handle
