ARM GAS  /var/folders/j4/zsgv5hks61j070b3g480n1j40000gn/T//ccIgmdQY.s 			page 1


   1              		.cpu cortex-m7
   2              		.arch armv7e-m
   3              		.fpu fpv5-d16
   4              		.eabi_attribute 28, 1
   5              		.eabi_attribute 20, 1
   6              		.eabi_attribute 21, 1
   7              		.eabi_attribute 23, 3
   8              		.eabi_attribute 24, 1
   9              		.eabi_attribute 25, 1
  10              		.eabi_attribute 26, 1
  11              		.eabi_attribute 30, 2
  12              		.eabi_attribute 34, 1
  13              		.eabi_attribute 18, 4
  14              		.file	"DaisyDrone.cpp"
  15              		.text
  16              	.Ltext0:
  17              		.cfi_sections	.debug_frame
  18              		.section	.text._ZN5daisy9DaisySeedD2Ev,"axG",%progbits,_ZN5daisy9DaisySeedD5Ev,comdat
  19              		.align	1
  20              		.p2align 2,,3
  21              		.weak	_ZN5daisy9DaisySeedD2Ev
  22              		.syntax unified
  23              		.thumb
  24              		.thumb_func
  26              	_ZN5daisy9DaisySeedD2Ev:
  27              	.LVL0:
  28              	.LFB2040:
  29              		.file 1 "../../Documents/Daisy/DaisyExamples/libdaisy//src/daisy_seed.h"
   1:../../Documents/Daisy/DaisyExamples/libdaisy//src/daisy_seed.h **** #pragma once
   2:../../Documents/Daisy/DaisyExamples/libdaisy//src/daisy_seed.h **** #ifndef DSY_SEED_H
   3:../../Documents/Daisy/DaisyExamples/libdaisy//src/daisy_seed.h **** #define DSY_SEED_H
   4:../../Documents/Daisy/DaisyExamples/libdaisy//src/daisy_seed.h **** 
   5:../../Documents/Daisy/DaisyExamples/libdaisy//src/daisy_seed.h **** #include "daisy.h"
   6:../../Documents/Daisy/DaisyExamples/libdaisy//src/daisy_seed.h **** 
   7:../../Documents/Daisy/DaisyExamples/libdaisy//src/daisy_seed.h **** //Uncomment this out if you're still using the rev2 hardware
   8:../../Documents/Daisy/DaisyExamples/libdaisy//src/daisy_seed.h **** //#define SEED_REV2
   9:../../Documents/Daisy/DaisyExamples/libdaisy//src/daisy_seed.h **** 
  10:../../Documents/Daisy/DaisyExamples/libdaisy//src/daisy_seed.h **** namespace daisy
  11:../../Documents/Daisy/DaisyExamples/libdaisy//src/daisy_seed.h **** {
  12:../../Documents/Daisy/DaisyExamples/libdaisy//src/daisy_seed.h **** /**
  13:../../Documents/Daisy/DaisyExamples/libdaisy//src/daisy_seed.h ****    @brief This is the higher-level interface for the Daisy board. \n 
  14:../../Documents/Daisy/DaisyExamples/libdaisy//src/daisy_seed.h ****     All basic peripheral configuration/initialization is setup here. \n
  15:../../Documents/Daisy/DaisyExamples/libdaisy//src/daisy_seed.h **** 
  16:../../Documents/Daisy/DaisyExamples/libdaisy//src/daisy_seed.h ****    @ingroup boards
  17:../../Documents/Daisy/DaisyExamples/libdaisy//src/daisy_seed.h **** */
  18:../../Documents/Daisy/DaisyExamples/libdaisy//src/daisy_seed.h **** class DaisySeed
  19:../../Documents/Daisy/DaisyExamples/libdaisy//src/daisy_seed.h **** {
  20:../../Documents/Daisy/DaisyExamples/libdaisy//src/daisy_seed.h ****   public:
  21:../../Documents/Daisy/DaisyExamples/libdaisy//src/daisy_seed.h ****     DaisySeed() {}
  22:../../Documents/Daisy/DaisyExamples/libdaisy//src/daisy_seed.h ****     ~DaisySeed() {}
  30              		.loc 1 22 5 view -0
  31              		.cfi_startproc
  32              		@ args = 0, pretend = 0, frame = 0
  33              		@ frame_needed = 0, uses_anonymous_args = 0
  34              		@ link register save eliminated.
  35              	.LBB89:
  36              	.LBI89:
ARM GAS  /var/folders/j4/zsgv5hks61j070b3g480n1j40000gn/T//ccIgmdQY.s 			page 2


  37              		.file 2 "../../Documents/Daisy/DaisyExamples/libdaisy//src/sys/system.h"
   1:../../Documents/Daisy/DaisyExamples/libdaisy//src/sys/system.h **** #ifndef DSY_SYSTEM_H
   2:../../Documents/Daisy/DaisyExamples/libdaisy//src/sys/system.h **** #define DSY_SYSTEM_H
   3:../../Documents/Daisy/DaisyExamples/libdaisy//src/sys/system.h **** 
   4:../../Documents/Daisy/DaisyExamples/libdaisy//src/sys/system.h **** #ifndef UNIT_TEST // for unit tests, a dummy implementation is provided below
   5:../../Documents/Daisy/DaisyExamples/libdaisy//src/sys/system.h **** 
   6:../../Documents/Daisy/DaisyExamples/libdaisy//src/sys/system.h **** #include <cstdint>
   7:../../Documents/Daisy/DaisyExamples/libdaisy//src/sys/system.h **** #include "per/tim.h"
   8:../../Documents/Daisy/DaisyExamples/libdaisy//src/sys/system.h **** 
   9:../../Documents/Daisy/DaisyExamples/libdaisy//src/sys/system.h **** namespace daisy
  10:../../Documents/Daisy/DaisyExamples/libdaisy//src/sys/system.h **** {
  11:../../Documents/Daisy/DaisyExamples/libdaisy//src/sys/system.h **** /** A handle for interacting with the Core System. 
  12:../../Documents/Daisy/DaisyExamples/libdaisy//src/sys/system.h ****  ** This includes the Clock tree, MPU, global DMA initialization,
  13:../../Documents/Daisy/DaisyExamples/libdaisy//src/sys/system.h ****  ** cache handling, and any other necessary global initiailzation
  14:../../Documents/Daisy/DaisyExamples/libdaisy//src/sys/system.h ****  **
  15:../../Documents/Daisy/DaisyExamples/libdaisy//src/sys/system.h ****  ** @author shensley
  16:../../Documents/Daisy/DaisyExamples/libdaisy//src/sys/system.h ****  ** @addtogroup system
  17:../../Documents/Daisy/DaisyExamples/libdaisy//src/sys/system.h ****  */
  18:../../Documents/Daisy/DaisyExamples/libdaisy//src/sys/system.h **** class System
  19:../../Documents/Daisy/DaisyExamples/libdaisy//src/sys/system.h **** {
  20:../../Documents/Daisy/DaisyExamples/libdaisy//src/sys/system.h ****   public:
  21:../../Documents/Daisy/DaisyExamples/libdaisy//src/sys/system.h ****     /** Contains settings for initializing the System */
  22:../../Documents/Daisy/DaisyExamples/libdaisy//src/sys/system.h ****     struct Config
  23:../../Documents/Daisy/DaisyExamples/libdaisy//src/sys/system.h ****     {
  24:../../Documents/Daisy/DaisyExamples/libdaisy//src/sys/system.h ****         /** Specifies the system clock frequency that feeds APB/AHB clocks, etc. */
  25:../../Documents/Daisy/DaisyExamples/libdaisy//src/sys/system.h ****         enum class SysClkFreq
  26:../../Documents/Daisy/DaisyExamples/libdaisy//src/sys/system.h ****         {
  27:../../Documents/Daisy/DaisyExamples/libdaisy//src/sys/system.h ****             FREQ_400MHZ,
  28:../../Documents/Daisy/DaisyExamples/libdaisy//src/sys/system.h ****             FREQ_480MHZ,
  29:../../Documents/Daisy/DaisyExamples/libdaisy//src/sys/system.h ****         };
  30:../../Documents/Daisy/DaisyExamples/libdaisy//src/sys/system.h **** 
  31:../../Documents/Daisy/DaisyExamples/libdaisy//src/sys/system.h ****         /** Method to call on the struct to set to defaults
  32:../../Documents/Daisy/DaisyExamples/libdaisy//src/sys/system.h ****          ** CPU Freq set to 400MHz
  33:../../Documents/Daisy/DaisyExamples/libdaisy//src/sys/system.h ****          ** Cache Enabled 
  34:../../Documents/Daisy/DaisyExamples/libdaisy//src/sys/system.h ****          ** */
  35:../../Documents/Daisy/DaisyExamples/libdaisy//src/sys/system.h ****         void Defaults()
  36:../../Documents/Daisy/DaisyExamples/libdaisy//src/sys/system.h ****         {
  37:../../Documents/Daisy/DaisyExamples/libdaisy//src/sys/system.h ****             cpu_freq    = SysClkFreq::FREQ_400MHZ;
  38:../../Documents/Daisy/DaisyExamples/libdaisy//src/sys/system.h ****             use_dcache  = true;
  39:../../Documents/Daisy/DaisyExamples/libdaisy//src/sys/system.h ****             use_icache  = true;
  40:../../Documents/Daisy/DaisyExamples/libdaisy//src/sys/system.h ****             skip_clocks = false;
  41:../../Documents/Daisy/DaisyExamples/libdaisy//src/sys/system.h ****         }
  42:../../Documents/Daisy/DaisyExamples/libdaisy//src/sys/system.h **** 
  43:../../Documents/Daisy/DaisyExamples/libdaisy//src/sys/system.h ****         /** Method to call on the struct to set to boost mode:
  44:../../Documents/Daisy/DaisyExamples/libdaisy//src/sys/system.h ****          ** CPU Freq set to 480MHz
  45:../../Documents/Daisy/DaisyExamples/libdaisy//src/sys/system.h ****          ** Cache Enabled 
  46:../../Documents/Daisy/DaisyExamples/libdaisy//src/sys/system.h ****          ** */
  47:../../Documents/Daisy/DaisyExamples/libdaisy//src/sys/system.h ****         void Boost()
  48:../../Documents/Daisy/DaisyExamples/libdaisy//src/sys/system.h ****         {
  49:../../Documents/Daisy/DaisyExamples/libdaisy//src/sys/system.h ****             cpu_freq    = SysClkFreq::FREQ_480MHZ;
  50:../../Documents/Daisy/DaisyExamples/libdaisy//src/sys/system.h ****             use_dcache  = true;
  51:../../Documents/Daisy/DaisyExamples/libdaisy//src/sys/system.h ****             use_icache  = true;
  52:../../Documents/Daisy/DaisyExamples/libdaisy//src/sys/system.h ****             skip_clocks = false;
  53:../../Documents/Daisy/DaisyExamples/libdaisy//src/sys/system.h ****         }
  54:../../Documents/Daisy/DaisyExamples/libdaisy//src/sys/system.h **** 
  55:../../Documents/Daisy/DaisyExamples/libdaisy//src/sys/system.h ****         SysClkFreq cpu_freq;
  56:../../Documents/Daisy/DaisyExamples/libdaisy//src/sys/system.h ****         bool       use_dcache;
ARM GAS  /var/folders/j4/zsgv5hks61j070b3g480n1j40000gn/T//ccIgmdQY.s 			page 3


  57:../../Documents/Daisy/DaisyExamples/libdaisy//src/sys/system.h ****         bool       use_icache;
  58:../../Documents/Daisy/DaisyExamples/libdaisy//src/sys/system.h ****         bool       skip_clocks;
  59:../../Documents/Daisy/DaisyExamples/libdaisy//src/sys/system.h ****     };
  60:../../Documents/Daisy/DaisyExamples/libdaisy//src/sys/system.h **** 
  61:../../Documents/Daisy/DaisyExamples/libdaisy//src/sys/system.h ****     /** Describes the different regions of memory available to the Daisy
  62:../../Documents/Daisy/DaisyExamples/libdaisy//src/sys/system.h ****      * 
  63:../../Documents/Daisy/DaisyExamples/libdaisy//src/sys/system.h ****      */
  64:../../Documents/Daisy/DaisyExamples/libdaisy//src/sys/system.h ****     enum MemoryRegion
  65:../../Documents/Daisy/DaisyExamples/libdaisy//src/sys/system.h ****     {
  66:../../Documents/Daisy/DaisyExamples/libdaisy//src/sys/system.h ****         INTERNAL_FLASH = 0,
  67:../../Documents/Daisy/DaisyExamples/libdaisy//src/sys/system.h ****         ITCMRAM,
  68:../../Documents/Daisy/DaisyExamples/libdaisy//src/sys/system.h ****         DTCMRAM,
  69:../../Documents/Daisy/DaisyExamples/libdaisy//src/sys/system.h ****         SRAM_D1,
  70:../../Documents/Daisy/DaisyExamples/libdaisy//src/sys/system.h ****         SRAM_D2,
  71:../../Documents/Daisy/DaisyExamples/libdaisy//src/sys/system.h ****         SRAM_D3,
  72:../../Documents/Daisy/DaisyExamples/libdaisy//src/sys/system.h ****         SDRAM,
  73:../../Documents/Daisy/DaisyExamples/libdaisy//src/sys/system.h ****         QSPI,
  74:../../Documents/Daisy/DaisyExamples/libdaisy//src/sys/system.h ****         INVALID_ADDRESS,
  75:../../Documents/Daisy/DaisyExamples/libdaisy//src/sys/system.h ****     };
  76:../../Documents/Daisy/DaisyExamples/libdaisy//src/sys/system.h **** 
  77:../../Documents/Daisy/DaisyExamples/libdaisy//src/sys/system.h ****     System() {}
  78:../../Documents/Daisy/DaisyExamples/libdaisy//src/sys/system.h ****     ~System() {}
  38              		.loc 2 78 5 view .LVU1
  39              		.loc 2 78 5 is_stmt 0 view .LVU2
  40              	.LBE89:
  41              	.LBB90:
  42              	.LBI90:
  43              		.file 3 "../../Documents/Daisy/DaisyExamples/libdaisy//src/hid/usb.h"
   1:../../Documents/Daisy/DaisyExamples/libdaisy//src/hid/usb.h **** #pragma once
   2:../../Documents/Daisy/DaisyExamples/libdaisy//src/hid/usb.h **** #ifndef DSY_HID_USB_H
   3:../../Documents/Daisy/DaisyExamples/libdaisy//src/hid/usb.h **** #define DSY_HID_USB_H
   4:../../Documents/Daisy/DaisyExamples/libdaisy//src/hid/usb.h **** #include <stdint.h>
   5:../../Documents/Daisy/DaisyExamples/libdaisy//src/hid/usb.h **** #include <stdlib.h>
   6:../../Documents/Daisy/DaisyExamples/libdaisy//src/hid/usb.h **** 
   7:../../Documents/Daisy/DaisyExamples/libdaisy//src/hid/usb.h **** namespace daisy
   8:../../Documents/Daisy/DaisyExamples/libdaisy//src/hid/usb.h **** /** @addtogroup externals
   9:../../Documents/Daisy/DaisyExamples/libdaisy//src/hid/usb.h ****     @{
  10:../../Documents/Daisy/DaisyExamples/libdaisy//src/hid/usb.h **** */
  11:../../Documents/Daisy/DaisyExamples/libdaisy//src/hid/usb.h **** 
  12:../../Documents/Daisy/DaisyExamples/libdaisy//src/hid/usb.h **** {
  13:../../Documents/Daisy/DaisyExamples/libdaisy//src/hid/usb.h **** /** 
  14:../../Documents/Daisy/DaisyExamples/libdaisy//src/hid/usb.h ****     @brief Interface for initializing and using the USB Peripherals on the daisy
  15:../../Documents/Daisy/DaisyExamples/libdaisy//src/hid/usb.h ****     @author Stephen Hensley
  16:../../Documents/Daisy/DaisyExamples/libdaisy//src/hid/usb.h ****     @date December 2019
  17:../../Documents/Daisy/DaisyExamples/libdaisy//src/hid/usb.h **** */
  18:../../Documents/Daisy/DaisyExamples/libdaisy//src/hid/usb.h **** class UsbHandle
  19:../../Documents/Daisy/DaisyExamples/libdaisy//src/hid/usb.h **** {
  20:../../Documents/Daisy/DaisyExamples/libdaisy//src/hid/usb.h ****   public:
  21:../../Documents/Daisy/DaisyExamples/libdaisy//src/hid/usb.h ****     /** Return values for USBHandle Functions */
  22:../../Documents/Daisy/DaisyExamples/libdaisy//src/hid/usb.h ****     enum class Result
  23:../../Documents/Daisy/DaisyExamples/libdaisy//src/hid/usb.h ****     {
  24:../../Documents/Daisy/DaisyExamples/libdaisy//src/hid/usb.h ****         OK,
  25:../../Documents/Daisy/DaisyExamples/libdaisy//src/hid/usb.h ****         ERR,
  26:../../Documents/Daisy/DaisyExamples/libdaisy//src/hid/usb.h ****     };
  27:../../Documents/Daisy/DaisyExamples/libdaisy//src/hid/usb.h **** 
  28:../../Documents/Daisy/DaisyExamples/libdaisy//src/hid/usb.h ****     /** Specified which of the two USB Peripherals to initialize. */
  29:../../Documents/Daisy/DaisyExamples/libdaisy//src/hid/usb.h ****     enum UsbPeriph
ARM GAS  /var/folders/j4/zsgv5hks61j070b3g480n1j40000gn/T//ccIgmdQY.s 			page 4


  30:../../Documents/Daisy/DaisyExamples/libdaisy//src/hid/usb.h ****     {
  31:../../Documents/Daisy/DaisyExamples/libdaisy//src/hid/usb.h ****         FS_INTERNAL, /**< Internal pin */
  32:../../Documents/Daisy/DaisyExamples/libdaisy//src/hid/usb.h ****         FS_EXTERNAL, /**< FS External D+ pin is Pin 38 (GPIO32). FS External D- pin is Pin 37 (GPIO
  33:../../Documents/Daisy/DaisyExamples/libdaisy//src/hid/usb.h ****         FS_BOTH,     /**< Both */
  34:../../Documents/Daisy/DaisyExamples/libdaisy//src/hid/usb.h ****     };
  35:../../Documents/Daisy/DaisyExamples/libdaisy//src/hid/usb.h **** 
  36:../../Documents/Daisy/DaisyExamples/libdaisy//src/hid/usb.h **** 
  37:../../Documents/Daisy/DaisyExamples/libdaisy//src/hid/usb.h ****     /** Function called upon reception of a buffer */
  38:../../Documents/Daisy/DaisyExamples/libdaisy//src/hid/usb.h ****     typedef void (*ReceiveCallback)(uint8_t* buff, uint32_t* len);
  39:../../Documents/Daisy/DaisyExamples/libdaisy//src/hid/usb.h **** 
  40:../../Documents/Daisy/DaisyExamples/libdaisy//src/hid/usb.h ****     UsbHandle() {}
  41:../../Documents/Daisy/DaisyExamples/libdaisy//src/hid/usb.h **** 
  42:../../Documents/Daisy/DaisyExamples/libdaisy//src/hid/usb.h ****     ~UsbHandle() {}
  44              		.loc 3 42 5 is_stmt 1 view .LVU3
  45              		.loc 3 42 5 is_stmt 0 view .LVU4
  46              	.LBE90:
  47              	.LBB91:
  48              	.LBI91:
  49              		.file 4 "../../Documents/Daisy/DaisyExamples/libdaisy//src/per/adc.h"
   1:../../Documents/Daisy/DaisyExamples/libdaisy//src/per/adc.h **** #pragma once
   2:../../Documents/Daisy/DaisyExamples/libdaisy//src/per/adc.h **** #ifndef DSY_ADC_H
   3:../../Documents/Daisy/DaisyExamples/libdaisy//src/per/adc.h **** #define DSY_ADC_H /**< Macro */
   4:../../Documents/Daisy/DaisyExamples/libdaisy//src/per/adc.h **** #include <stdint.h>
   5:../../Documents/Daisy/DaisyExamples/libdaisy//src/per/adc.h **** #include <stdlib.h>
   6:../../Documents/Daisy/DaisyExamples/libdaisy//src/per/adc.h **** #include "daisy_core.h"
   7:../../Documents/Daisy/DaisyExamples/libdaisy//src/per/adc.h **** #include "per/gpio.h"
   8:../../Documents/Daisy/DaisyExamples/libdaisy//src/per/adc.h **** 
   9:../../Documents/Daisy/DaisyExamples/libdaisy//src/per/adc.h **** #define DSY_ADC_MAX_CHANNELS 16 /**< Maximum number of ADC channels */
  10:../../Documents/Daisy/DaisyExamples/libdaisy//src/per/adc.h **** 
  11:../../Documents/Daisy/DaisyExamples/libdaisy//src/per/adc.h **** namespace daisy
  12:../../Documents/Daisy/DaisyExamples/libdaisy//src/per/adc.h **** {
  13:../../Documents/Daisy/DaisyExamples/libdaisy//src/per/adc.h **** /** @addtogroup analog_digital_conversion
  14:../../Documents/Daisy/DaisyExamples/libdaisy//src/per/adc.h ****     @{
  15:../../Documents/Daisy/DaisyExamples/libdaisy//src/per/adc.h **** */
  16:../../Documents/Daisy/DaisyExamples/libdaisy//src/per/adc.h **** 
  17:../../Documents/Daisy/DaisyExamples/libdaisy//src/per/adc.h **** /* While there may not be many configuration options here,
  18:../../Documents/Daisy/DaisyExamples/libdaisy//src/per/adc.h **** using a struct like this allows us to add more configuration
  19:../../Documents/Daisy/DaisyExamples/libdaisy//src/per/adc.h **** later without breaking existing functionality.
  20:../../Documents/Daisy/DaisyExamples/libdaisy//src/per/adc.h **** */
  21:../../Documents/Daisy/DaisyExamples/libdaisy//src/per/adc.h **** 
  22:../../Documents/Daisy/DaisyExamples/libdaisy//src/per/adc.h **** /** Configuration Structure for a given channel */
  23:../../Documents/Daisy/DaisyExamples/libdaisy//src/per/adc.h **** struct AdcChannelConfig
  24:../../Documents/Daisy/DaisyExamples/libdaisy//src/per/adc.h **** {
  25:../../Documents/Daisy/DaisyExamples/libdaisy//src/per/adc.h ****     /** Which pin to use for multiplexing */
  26:../../Documents/Daisy/DaisyExamples/libdaisy//src/per/adc.h ****     enum MuxPin
  27:../../Documents/Daisy/DaisyExamples/libdaisy//src/per/adc.h ****     {
  28:../../Documents/Daisy/DaisyExamples/libdaisy//src/per/adc.h ****         MUX_SEL_0,    /**< & */
  29:../../Documents/Daisy/DaisyExamples/libdaisy//src/per/adc.h ****         MUX_SEL_1,    /**< & */
  30:../../Documents/Daisy/DaisyExamples/libdaisy//src/per/adc.h ****         MUX_SEL_2,    /**< & */
  31:../../Documents/Daisy/DaisyExamples/libdaisy//src/per/adc.h ****         MUX_SEL_LAST, /**< & */
  32:../../Documents/Daisy/DaisyExamples/libdaisy//src/per/adc.h ****     };
  33:../../Documents/Daisy/DaisyExamples/libdaisy//src/per/adc.h **** 
  34:../../Documents/Daisy/DaisyExamples/libdaisy//src/per/adc.h ****     /** Initializes a single ADC pin as an ADC. 
  35:../../Documents/Daisy/DaisyExamples/libdaisy//src/per/adc.h ****     \param pin Pin to init.
  36:../../Documents/Daisy/DaisyExamples/libdaisy//src/per/adc.h ****      */
  37:../../Documents/Daisy/DaisyExamples/libdaisy//src/per/adc.h ****     void InitSingle(dsy_gpio_pin pin);
  38:../../Documents/Daisy/DaisyExamples/libdaisy//src/per/adc.h **** 
ARM GAS  /var/folders/j4/zsgv5hks61j070b3g480n1j40000gn/T//ccIgmdQY.s 			page 5


  39:../../Documents/Daisy/DaisyExamples/libdaisy//src/per/adc.h ****     /** 
  40:../../Documents/Daisy/DaisyExamples/libdaisy//src/per/adc.h ****     Initializes a single ADC pin as a Multiplexed ADC.
  41:../../Documents/Daisy/DaisyExamples/libdaisy//src/per/adc.h ****     Requires a CD405X Multiplexer connected to the pin.
  42:../../Documents/Daisy/DaisyExamples/libdaisy//src/per/adc.h ****     You only need to supply the mux pins that are required,
  43:../../Documents/Daisy/DaisyExamples/libdaisy//src/per/adc.h ****     e.g. a 4052 mux would only require mux_0 and mux_1.
  44:../../Documents/Daisy/DaisyExamples/libdaisy//src/per/adc.h ****     Internal Callbacks handle the pin addressing.
  45:../../Documents/Daisy/DaisyExamples/libdaisy//src/per/adc.h ****     \param mux_channels must be 1-8
  46:../../Documents/Daisy/DaisyExamples/libdaisy//src/per/adc.h ****     \param mux_0 First mux pin
  47:../../Documents/Daisy/DaisyExamples/libdaisy//src/per/adc.h ****     \param mux_1 Second mux pin
  48:../../Documents/Daisy/DaisyExamples/libdaisy//src/per/adc.h ****     \param mux_2 Third mux pin
  49:../../Documents/Daisy/DaisyExamples/libdaisy//src/per/adc.h ****     \param adc_pin &
  50:../../Documents/Daisy/DaisyExamples/libdaisy//src/per/adc.h ****     */
  51:../../Documents/Daisy/DaisyExamples/libdaisy//src/per/adc.h ****     void InitMux(dsy_gpio_pin adc_pin,
  52:../../Documents/Daisy/DaisyExamples/libdaisy//src/per/adc.h ****                  size_t       mux_channels,
  53:../../Documents/Daisy/DaisyExamples/libdaisy//src/per/adc.h ****                  dsy_gpio_pin mux_0,
  54:../../Documents/Daisy/DaisyExamples/libdaisy//src/per/adc.h ****                  dsy_gpio_pin mux_1 = {DSY_GPIOX, 0},
  55:../../Documents/Daisy/DaisyExamples/libdaisy//src/per/adc.h ****                  dsy_gpio_pin mux_2 = {DSY_GPIOX, 0});
  56:../../Documents/Daisy/DaisyExamples/libdaisy//src/per/adc.h **** 
  57:../../Documents/Daisy/DaisyExamples/libdaisy//src/per/adc.h ****     dsy_gpio pin_;                   /**< & */
  58:../../Documents/Daisy/DaisyExamples/libdaisy//src/per/adc.h ****     dsy_gpio mux_pin_[MUX_SEL_LAST]; /**< & */
  59:../../Documents/Daisy/DaisyExamples/libdaisy//src/per/adc.h ****     uint8_t  mux_channels_;          /**< & */
  60:../../Documents/Daisy/DaisyExamples/libdaisy//src/per/adc.h **** };
  61:../../Documents/Daisy/DaisyExamples/libdaisy//src/per/adc.h **** 
  62:../../Documents/Daisy/DaisyExamples/libdaisy//src/per/adc.h **** /**
  63:../../Documents/Daisy/DaisyExamples/libdaisy//src/per/adc.h ****    Handler for analog to digital conversion
  64:../../Documents/Daisy/DaisyExamples/libdaisy//src/per/adc.h **** */
  65:../../Documents/Daisy/DaisyExamples/libdaisy//src/per/adc.h **** class AdcHandle
  66:../../Documents/Daisy/DaisyExamples/libdaisy//src/per/adc.h **** {
  67:../../Documents/Daisy/DaisyExamples/libdaisy//src/per/adc.h ****   public:
  68:../../Documents/Daisy/DaisyExamples/libdaisy//src/per/adc.h ****     /** Supported oversampling amounts */
  69:../../Documents/Daisy/DaisyExamples/libdaisy//src/per/adc.h ****     enum OverSampling
  70:../../Documents/Daisy/DaisyExamples/libdaisy//src/per/adc.h ****     {
  71:../../Documents/Daisy/DaisyExamples/libdaisy//src/per/adc.h ****         OVS_NONE, /**< & */
  72:../../Documents/Daisy/DaisyExamples/libdaisy//src/per/adc.h ****         OVS_4,    /**< & */
  73:../../Documents/Daisy/DaisyExamples/libdaisy//src/per/adc.h ****         OVS_8,    /**< & */
  74:../../Documents/Daisy/DaisyExamples/libdaisy//src/per/adc.h ****         OVS_16,   /**< & */
  75:../../Documents/Daisy/DaisyExamples/libdaisy//src/per/adc.h ****         OVS_32,   /**< & */
  76:../../Documents/Daisy/DaisyExamples/libdaisy//src/per/adc.h ****         OVS_64,   /**< & */
  77:../../Documents/Daisy/DaisyExamples/libdaisy//src/per/adc.h ****         OVS_128,  /**< & */
  78:../../Documents/Daisy/DaisyExamples/libdaisy//src/per/adc.h ****         OVS_256,  /**< & */
  79:../../Documents/Daisy/DaisyExamples/libdaisy//src/per/adc.h ****         OVS_512,  /**< & */
  80:../../Documents/Daisy/DaisyExamples/libdaisy//src/per/adc.h ****         OVS_1024, /**< & */
  81:../../Documents/Daisy/DaisyExamples/libdaisy//src/per/adc.h ****         OVS_LAST, /**< & */
  82:../../Documents/Daisy/DaisyExamples/libdaisy//src/per/adc.h ****     };
  83:../../Documents/Daisy/DaisyExamples/libdaisy//src/per/adc.h **** 
  84:../../Documents/Daisy/DaisyExamples/libdaisy//src/per/adc.h ****     AdcHandle() {}
  85:../../Documents/Daisy/DaisyExamples/libdaisy//src/per/adc.h ****     ~AdcHandle() {}
  50              		.loc 4 85 5 is_stmt 1 view .LVU5
  51              		.loc 4 85 5 is_stmt 0 view .LVU6
  52              	.LBE91:
  53              	.LBB92:
  54              	.LBI92:
  55              		.file 5 "../../Documents/Daisy/DaisyExamples/libdaisy//src/hid/audio.h"
   1:../../Documents/Daisy/DaisyExamples/libdaisy//src/hid/audio.h **** #ifndef DSY_AUDIO_H
   2:../../Documents/Daisy/DaisyExamples/libdaisy//src/hid/audio.h **** #define DSY_AUDIO_H /**< & */
   3:../../Documents/Daisy/DaisyExamples/libdaisy//src/hid/audio.h **** 
   4:../../Documents/Daisy/DaisyExamples/libdaisy//src/hid/audio.h **** #include "per/sai.h"
ARM GAS  /var/folders/j4/zsgv5hks61j070b3g480n1j40000gn/T//ccIgmdQY.s 			page 6


   5:../../Documents/Daisy/DaisyExamples/libdaisy//src/hid/audio.h **** 
   6:../../Documents/Daisy/DaisyExamples/libdaisy//src/hid/audio.h **** namespace daisy
   7:../../Documents/Daisy/DaisyExamples/libdaisy//src/hid/audio.h **** {
   8:../../Documents/Daisy/DaisyExamples/libdaisy//src/hid/audio.h **** class AudioHandle
   9:../../Documents/Daisy/DaisyExamples/libdaisy//src/hid/audio.h **** {
  10:../../Documents/Daisy/DaisyExamples/libdaisy//src/hid/audio.h ****   public:
  11:../../Documents/Daisy/DaisyExamples/libdaisy//src/hid/audio.h ****     /** Manually configurable details about the Audio Engine */
  12:../../Documents/Daisy/DaisyExamples/libdaisy//src/hid/audio.h ****     /** TODO: Figure out how to get samplerate in here. */
  13:../../Documents/Daisy/DaisyExamples/libdaisy//src/hid/audio.h ****     struct Config
  14:../../Documents/Daisy/DaisyExamples/libdaisy//src/hid/audio.h ****     {
  15:../../Documents/Daisy/DaisyExamples/libdaisy//src/hid/audio.h ****         size_t                        blocksize;
  16:../../Documents/Daisy/DaisyExamples/libdaisy//src/hid/audio.h ****         SaiHandle::Config::SampleRate samplerate;
  17:../../Documents/Daisy/DaisyExamples/libdaisy//src/hid/audio.h ****         float                         postgain;
  18:../../Documents/Daisy/DaisyExamples/libdaisy//src/hid/audio.h ****     };
  19:../../Documents/Daisy/DaisyExamples/libdaisy//src/hid/audio.h **** 
  20:../../Documents/Daisy/DaisyExamples/libdaisy//src/hid/audio.h ****     enum class Result
  21:../../Documents/Daisy/DaisyExamples/libdaisy//src/hid/audio.h ****     {
  22:../../Documents/Daisy/DaisyExamples/libdaisy//src/hid/audio.h ****         OK,
  23:../../Documents/Daisy/DaisyExamples/libdaisy//src/hid/audio.h ****         ERR,
  24:../../Documents/Daisy/DaisyExamples/libdaisy//src/hid/audio.h ****     };
  25:../../Documents/Daisy/DaisyExamples/libdaisy//src/hid/audio.h **** 
  26:../../Documents/Daisy/DaisyExamples/libdaisy//src/hid/audio.h ****     /** Non-Interleaving input buffer
  27:../../Documents/Daisy/DaisyExamples/libdaisy//src/hid/audio.h ****      * Buffer arranged by float[chn][sample] 
  28:../../Documents/Daisy/DaisyExamples/libdaisy//src/hid/audio.h ****      * const so that the user can't modify the input
  29:../../Documents/Daisy/DaisyExamples/libdaisy//src/hid/audio.h ****     */
  30:../../Documents/Daisy/DaisyExamples/libdaisy//src/hid/audio.h ****     typedef const float* const* InputBuffer;
  31:../../Documents/Daisy/DaisyExamples/libdaisy//src/hid/audio.h **** 
  32:../../Documents/Daisy/DaisyExamples/libdaisy//src/hid/audio.h ****     /** Non-Interleaving output buffer
  33:../../Documents/Daisy/DaisyExamples/libdaisy//src/hid/audio.h ****      * Arranged by float[chn][sample] 
  34:../../Documents/Daisy/DaisyExamples/libdaisy//src/hid/audio.h ****     */
  35:../../Documents/Daisy/DaisyExamples/libdaisy//src/hid/audio.h ****     typedef float** OutputBuffer;
  36:../../Documents/Daisy/DaisyExamples/libdaisy//src/hid/audio.h **** 
  37:../../Documents/Daisy/DaisyExamples/libdaisy//src/hid/audio.h ****     /** Type for a Non-Interleaving audio callback 
  38:../../Documents/Daisy/DaisyExamples/libdaisy//src/hid/audio.h ****    * Non-Interleaving audio callbacks in daisy will be of this type
  39:../../Documents/Daisy/DaisyExamples/libdaisy//src/hid/audio.h ****   */
  40:../../Documents/Daisy/DaisyExamples/libdaisy//src/hid/audio.h ****     typedef void (*AudioCallback)(InputBuffer  in,
  41:../../Documents/Daisy/DaisyExamples/libdaisy//src/hid/audio.h ****                                   OutputBuffer out,
  42:../../Documents/Daisy/DaisyExamples/libdaisy//src/hid/audio.h ****                                   size_t       size);
  43:../../Documents/Daisy/DaisyExamples/libdaisy//src/hid/audio.h **** 
  44:../../Documents/Daisy/DaisyExamples/libdaisy//src/hid/audio.h ****     /** Interleaving Input buffer
  45:../../Documents/Daisy/DaisyExamples/libdaisy//src/hid/audio.h ****      ** audio is prepared as { L0, R0, L1, R1, . . . LN, RN }]
  46:../../Documents/Daisy/DaisyExamples/libdaisy//src/hid/audio.h ****      ** this is const, as the user shouldn't modify it
  47:../../Documents/Daisy/DaisyExamples/libdaisy//src/hid/audio.h ****     */
  48:../../Documents/Daisy/DaisyExamples/libdaisy//src/hid/audio.h ****     typedef const float* InterleavingInputBuffer;
  49:../../Documents/Daisy/DaisyExamples/libdaisy//src/hid/audio.h **** 
  50:../../Documents/Daisy/DaisyExamples/libdaisy//src/hid/audio.h ****     /** Interleaving Output buffer 
  51:../../Documents/Daisy/DaisyExamples/libdaisy//src/hid/audio.h ****      ** audio is prepared as { L0, R0, L1, R1, . . . LN, RN }
  52:../../Documents/Daisy/DaisyExamples/libdaisy//src/hid/audio.h ****     */
  53:../../Documents/Daisy/DaisyExamples/libdaisy//src/hid/audio.h ****     typedef float* InterleavingOutputBuffer;
  54:../../Documents/Daisy/DaisyExamples/libdaisy//src/hid/audio.h **** 
  55:../../Documents/Daisy/DaisyExamples/libdaisy//src/hid/audio.h ****     /** Interleaving Audio Callback 
  56:../../Documents/Daisy/DaisyExamples/libdaisy//src/hid/audio.h ****    * Interleaving audio callbacks in daisy must be of this type
  57:../../Documents/Daisy/DaisyExamples/libdaisy//src/hid/audio.h ****   */
  58:../../Documents/Daisy/DaisyExamples/libdaisy//src/hid/audio.h ****     typedef void (*InterleavingAudioCallback)(InterleavingInputBuffer  in,
  59:../../Documents/Daisy/DaisyExamples/libdaisy//src/hid/audio.h ****                                               InterleavingOutputBuffer out,
  60:../../Documents/Daisy/DaisyExamples/libdaisy//src/hid/audio.h ****                                               size_t                   size);
  61:../../Documents/Daisy/DaisyExamples/libdaisy//src/hid/audio.h **** 
ARM GAS  /var/folders/j4/zsgv5hks61j070b3g480n1j40000gn/T//ccIgmdQY.s 			page 7


  62:../../Documents/Daisy/DaisyExamples/libdaisy//src/hid/audio.h ****     AudioHandle() : pimpl_(nullptr) {}
  63:../../Documents/Daisy/DaisyExamples/libdaisy//src/hid/audio.h ****     ~AudioHandle() {}
  56              		.loc 5 63 5 is_stmt 1 view .LVU7
  57              		.loc 5 63 5 is_stmt 0 view .LVU8
  58              	.LBE92:
  59              		.loc 1 22 19 view .LVU9
  60 0000 7047     		bx	lr
  61              		.cfi_endproc
  62              	.LFE2040:
  64              		.weak	_ZN5daisy9DaisySeedD1Ev
  65              		.thumb_set _ZN5daisy9DaisySeedD1Ev,_ZN5daisy9DaisySeedD2Ev
  66 0002 00BF     		.section	.text._ZN7daisysp10OscillatorD2Ev,"axG",%progbits,_ZN7daisysp10OscillatorD5Ev,comdat
  67              		.align	1
  68              		.p2align 2,,3
  69              		.weak	_ZN7daisysp10OscillatorD2Ev
  70              		.syntax unified
  71              		.thumb
  72              		.thumb_func
  74              	_ZN7daisysp10OscillatorD2Ev:
  75              	.LVL1:
  76              	.LFB3730:
  77              		.file 6 "../../Documents/Daisy/DaisyExamples/daisysp//Source/Synthesis/oscillator.h"
   1:../../Documents/Daisy/DaisyExamples/daisysp//Source/Synthesis/oscillator.h **** #pragma once
   2:../../Documents/Daisy/DaisyExamples/daisysp//Source/Synthesis/oscillator.h **** #ifndef DSY_OSCILLATOR_H
   3:../../Documents/Daisy/DaisyExamples/daisysp//Source/Synthesis/oscillator.h **** #define DSY_OSCILLATOR_H
   4:../../Documents/Daisy/DaisyExamples/daisysp//Source/Synthesis/oscillator.h **** #include <stdint.h>
   5:../../Documents/Daisy/DaisyExamples/daisysp//Source/Synthesis/oscillator.h **** #include "Utility/dsp.h"
   6:../../Documents/Daisy/DaisyExamples/daisysp//Source/Synthesis/oscillator.h **** #ifdef __cplusplus
   7:../../Documents/Daisy/DaisyExamples/daisysp//Source/Synthesis/oscillator.h **** 
   8:../../Documents/Daisy/DaisyExamples/daisysp//Source/Synthesis/oscillator.h **** namespace daisysp
   9:../../Documents/Daisy/DaisyExamples/daisysp//Source/Synthesis/oscillator.h **** {
  10:../../Documents/Daisy/DaisyExamples/daisysp//Source/Synthesis/oscillator.h **** /** Synthesis of several waveforms, including polyBLEP bandlimited waveforms.
  11:../../Documents/Daisy/DaisyExamples/daisysp//Source/Synthesis/oscillator.h **** */
  12:../../Documents/Daisy/DaisyExamples/daisysp//Source/Synthesis/oscillator.h **** class Oscillator
  13:../../Documents/Daisy/DaisyExamples/daisysp//Source/Synthesis/oscillator.h **** {
  14:../../Documents/Daisy/DaisyExamples/daisysp//Source/Synthesis/oscillator.h ****   public:
  15:../../Documents/Daisy/DaisyExamples/daisysp//Source/Synthesis/oscillator.h ****     Oscillator() {}
  16:../../Documents/Daisy/DaisyExamples/daisysp//Source/Synthesis/oscillator.h ****     ~Oscillator() {}
  78              		.loc 6 16 5 is_stmt 1 view -0
  79              		.cfi_startproc
  80              		@ args = 0, pretend = 0, frame = 0
  81              		@ frame_needed = 0, uses_anonymous_args = 0
  82              		@ link register save eliminated.
  83              		.loc 6 16 20 is_stmt 0 view .LVU11
  84 0000 7047     		bx	lr
  85              		.cfi_endproc
  86              	.LFE3730:
  88              		.weak	_ZN7daisysp10OscillatorD1Ev
  89              		.thumb_set _ZN7daisysp10OscillatorD1Ev,_ZN7daisysp10OscillatorD2Ev
  90 0002 00BF     		.section	.text._Z14audio_callbackPKPKfPPfj,"ax",%progbits
  91              		.align	1
  92              		.p2align 2,,3
  93              		.global	_Z14audio_callbackPKPKfPPfj
  94              		.syntax unified
  95              		.thumb
  96              		.thumb_func
  98              	_Z14audio_callbackPKPKfPPfj:
ARM GAS  /var/folders/j4/zsgv5hks61j070b3g480n1j40000gn/T//ccIgmdQY.s 			page 8


  99              	.LVL2:
 100              	.LFB4268:
 101              		.file 7 "DaisyDrone.cpp"
   1:DaisyDrone.cpp **** #include "daisy_seed.h"
   2:DaisyDrone.cpp **** #include "daisysp.h"
   3:DaisyDrone.cpp **** 
   4:DaisyDrone.cpp **** using namespace daisy;
   5:DaisyDrone.cpp **** using namespace daisysp;
   6:DaisyDrone.cpp **** 
   7:DaisyDrone.cpp **** const int NUM_POTS(2);
   8:DaisyDrone.cpp **** const int pot_pins[NUM_POTS] = { 15, 16 };
   9:DaisyDrone.cpp **** 
  10:DaisyDrone.cpp **** DaisySeed hw;
  11:DaisyDrone.cpp **** 
  12:DaisyDrone.cpp **** Oscillator osc;
  13:DaisyDrone.cpp **** 
  14:DaisyDrone.cpp **** void audio_callback(AudioHandle::InputBuffer in, AudioHandle::OutputBuffer out, size_t size)
  15:DaisyDrone.cpp **** {
 102              		.loc 7 15 1 is_stmt 1 view -0
 103              		.cfi_startproc
 104              		@ args = 0, pretend = 0, frame = 0
 105              		@ frame_needed = 0, uses_anonymous_args = 0
  16:DaisyDrone.cpp **** 	for (size_t i = 0; i < size; i++)
 106              		.loc 7 16 2 view .LVU13
 107              	.LBB93:
 108              		.loc 7 16 23 view .LVU14
 109 0000 A2B1     		cbz	r2, .L12
 110              	.LBE93:
  15:DaisyDrone.cpp **** 	for (size_t i = 0; i < size; i++)
 111              		.loc 7 15 1 is_stmt 0 view .LVU15
 112 0002 70B5     		push	{r4, r5, r6, lr}
 113              		.cfi_def_cfa_offset 16
 114              		.cfi_offset 4, -16
 115              		.cfi_offset 5, -12
 116              		.cfi_offset 6, -8
 117              		.cfi_offset 14, -4
 118 0004 0D46     		mov	r5, r1
 119 0006 1646     		mov	r6, r2
 120              	.LBB97:
 121              		.loc 7 16 14 view .LVU16
 122 0008 0024     		movs	r4, #0
 123              	.LVL3:
 124              	.L6:
 125              	.LBB94:
  17:DaisyDrone.cpp **** 	{
  18:DaisyDrone.cpp **** 		const float osc_out = osc.Process();
 126              		.loc 7 18 3 is_stmt 1 discriminator 2 view .LVU17
 127              		.loc 7 18 36 is_stmt 0 discriminator 2 view .LVU18
 128 000a 0948     		ldr	r0, .L15
 129 000c FFF7FEFF 		bl	_ZN7daisysp10Oscillator7ProcessEv
 130              	.LVL4:
  19:DaisyDrone.cpp **** 
  20:DaisyDrone.cpp **** 		out[0][i] = osc_out;
  21:DaisyDrone.cpp **** 		out[1][i] = osc_out;
 131              		.loc 7 21 13 discriminator 2 view .LVU19
 132 0010 D5E90003 		ldrd	r0, r3, [r5]
 133              	.LVL5:
ARM GAS  /var/folders/j4/zsgv5hks61j070b3g480n1j40000gn/T//ccIgmdQY.s 			page 9


  20:DaisyDrone.cpp **** 		out[1][i] = osc_out;
 134              		.loc 7 20 3 is_stmt 1 discriminator 2 view .LVU20
  20:DaisyDrone.cpp **** 		out[1][i] = osc_out;
 135              		.loc 7 20 13 is_stmt 0 discriminator 2 view .LVU21
 136 0014 00EB8400 		add	r0, r0, r4, lsl #2
 137              		.loc 7 21 13 discriminator 2 view .LVU22
 138 0018 03EB8403 		add	r3, r3, r4, lsl #2
 139              	.LBE94:
  16:DaisyDrone.cpp **** 	{
 140              		.loc 7 16 2 discriminator 2 view .LVU23
 141 001c 0134     		adds	r4, r4, #1
 142              	.LVL6:
 143              	.LBB95:
  20:DaisyDrone.cpp **** 		out[1][i] = osc_out;
 144              		.loc 7 20 13 discriminator 2 view .LVU24
 145 001e 80ED000A 		vstr.32	s0, [r0]
 146              		.loc 7 21 3 is_stmt 1 discriminator 2 view .LVU25
 147              	.LBE95:
  16:DaisyDrone.cpp **** 	{
 148              		.loc 7 16 23 is_stmt 0 discriminator 2 view .LVU26
 149 0022 A642     		cmp	r6, r4
 150              	.LBB96:
 151              		.loc 7 21 13 discriminator 2 view .LVU27
 152 0024 83ED000A 		vstr.32	s0, [r3]
 153              	.LBE96:
  16:DaisyDrone.cpp **** 	{
 154              		.loc 7 16 2 is_stmt 1 discriminator 2 view .LVU28
 155              	.LVL7:
  16:DaisyDrone.cpp **** 	{
 156              		.loc 7 16 23 discriminator 2 view .LVU29
 157 0028 EFD1     		bne	.L6
 158              	.LBE97:
  22:DaisyDrone.cpp **** 	}
  23:DaisyDrone.cpp **** }
 159              		.loc 7 23 1 is_stmt 0 view .LVU30
 160 002a 70BD     		pop	{r4, r5, r6, pc}
 161              	.LVL8:
 162              	.L12:
 163              		.cfi_def_cfa_offset 0
 164              		.cfi_restore 4
 165              		.cfi_restore 5
 166              		.cfi_restore 6
 167              		.cfi_restore 14
 168              		.loc 7 23 1 view .LVU31
 169 002c 7047     		bx	lr
 170              	.L16:
 171 002e 00BF     		.align	2
 172              	.L15:
 173 0030 00000000 		.word	.LANCHOR0
 174              		.cfi_endproc
 175              	.LFE4268:
 177              		.section	.text._Z9init_potsv,"ax",%progbits
 178              		.align	1
 179              		.p2align 2,,3
 180              		.global	_Z9init_potsv
 181              		.syntax unified
 182              		.thumb
ARM GAS  /var/folders/j4/zsgv5hks61j070b3g480n1j40000gn/T//ccIgmdQY.s 			page 10


 183              		.thumb_func
 185              	_Z9init_potsv:
 186              	.LFB4269:
  24:DaisyDrone.cpp **** 
  25:DaisyDrone.cpp **** void init_pots()
  26:DaisyDrone.cpp **** {
 187              		.loc 7 26 1 is_stmt 1 view -0
 188              		.cfi_startproc
 189              		@ args = 0, pretend = 0, frame = 40
 190              		@ frame_needed = 0, uses_anonymous_args = 0
  27:DaisyDrone.cpp **** 	AdcChannelConfig adc_config[NUM_POTS];
 191              		.loc 7 27 2 view .LVU33
  28:DaisyDrone.cpp **** 	for( int p = 0; p < NUM_POTS; ++p )
 192              		.loc 7 28 2 view .LVU34
 193              	.LVL9:
 194              	.LBB98:
 195              		.loc 7 28 20 view .LVU35
  29:DaisyDrone.cpp **** 	{
  30:DaisyDrone.cpp **** 		adc_config[p].InitSingle(hw.GetPin(pot_pins[p]));
 196              		.loc 7 30 3 view .LVU36
 197              	.LBE98:
  26:DaisyDrone.cpp **** 	AdcChannelConfig adc_config[NUM_POTS];
 198              		.loc 7 26 1 is_stmt 0 view .LVU37
 199 0000 10B5     		push	{r4, lr}
 200              		.cfi_def_cfa_offset 8
 201              		.cfi_offset 4, -8
 202              		.cfi_offset 14, -4
 203              	.LBB99:
 204              		.loc 7 30 27 view .LVU38
 205 0002 0F20     		movs	r0, #15
 206              	.LBE99:
  26:DaisyDrone.cpp **** 	AdcChannelConfig adc_config[NUM_POTS];
 207              		.loc 7 26 1 view .LVU39
 208 0004 8AB0     		sub	sp, sp, #40
 209              		.cfi_def_cfa_offset 48
 210              	.LBB100:
 211              		.loc 7 30 27 view .LVU40
 212 0006 FFF7FEFF 		bl	_ZN5daisy9DaisySeed6GetPinEh
 213              	.LVL10:
 214 000a 0346     		mov	r3, r0	@ movhi
 215 000c 01A8     		add	r0, sp, #4
 216              	.LBE100:
  31:DaisyDrone.cpp **** 	}
  32:DaisyDrone.cpp **** 	hw.adc.Init(adc_config, NUM_POTS);
 217              		.loc 7 32 13 view .LVU41
 218 000e 0E4C     		ldr	r4, .L19
 219              	.LBB101:
  30:DaisyDrone.cpp **** 	}
 220              		.loc 7 30 27 view .LVU42
 221 0010 ADF80030 		strh	r3, [sp]	@ movhi
 222 0014 0099     		ldr	r1, [sp]
 223 0016 FFF7FEFF 		bl	_ZN5daisy16AdcChannelConfig10InitSingleE12dsy_gpio_pin
 224              	.LVL11:
  28:DaisyDrone.cpp **** 	{
 225              		.loc 7 28 2 is_stmt 1 view .LVU43
  28:DaisyDrone.cpp **** 	{
 226              		.loc 7 28 20 view .LVU44
ARM GAS  /var/folders/j4/zsgv5hks61j070b3g480n1j40000gn/T//ccIgmdQY.s 			page 11


  30:DaisyDrone.cpp **** 	}
 227              		.loc 7 30 3 view .LVU45
  30:DaisyDrone.cpp **** 	}
 228              		.loc 7 30 27 is_stmt 0 view .LVU46
 229 001a 1020     		movs	r0, #16
 230 001c FFF7FEFF 		bl	_ZN5daisy9DaisySeed6GetPinEh
 231              	.LVL12:
 232 0020 0346     		mov	r3, r0	@ movhi
 233 0022 0DF11500 		add	r0, sp, #21
 234 0026 ADF80030 		strh	r3, [sp]	@ movhi
 235 002a 0099     		ldr	r1, [sp]
 236 002c FFF7FEFF 		bl	_ZN5daisy16AdcChannelConfig10InitSingleE12dsy_gpio_pin
 237              	.LVL13:
  28:DaisyDrone.cpp **** 	{
 238              		.loc 7 28 2 is_stmt 1 view .LVU47
  28:DaisyDrone.cpp **** 	{
 239              		.loc 7 28 20 view .LVU48
 240              	.LBE101:
 241              		.loc 7 32 2 view .LVU49
 242              		.loc 7 32 13 is_stmt 0 view .LVU50
 243 0030 0423     		movs	r3, #4
 244 0032 0222     		movs	r2, #2
 245 0034 2046     		mov	r0, r4
 246 0036 0DEB0301 		add	r1, sp, r3
 247 003a FFF7FEFF 		bl	_ZN5daisy9AdcHandle4InitEPNS_16AdcChannelConfigEjNS0_12OverSamplingE
 248              	.LVL14:
  33:DaisyDrone.cpp ****     hw.adc.Start();
 249              		.loc 7 33 5 is_stmt 1 view .LVU51
 250              		.loc 7 33 17 is_stmt 0 view .LVU52
 251 003e 2046     		mov	r0, r4
 252 0040 FFF7FEFF 		bl	_ZN5daisy9AdcHandle5StartEv
 253              	.LVL15:
  34:DaisyDrone.cpp **** }
 254              		.loc 7 34 1 view .LVU53
 255 0044 0AB0     		add	sp, sp, #40
 256              		.cfi_def_cfa_offset 8
 257              		@ sp needed
 258 0046 10BD     		pop	{r4, pc}
 259              	.L20:
 260              		.align	2
 261              	.L19:
 262 0048 18000000 		.word	.LANCHOR1+24
 263              		.cfi_endproc
 264              	.LFE4269:
 266              		.section	.rodata.main.str1.4,"aMS",%progbits,1
 267              		.align	2
 268              	.LC0:
 269 0000 53746172 		.ascii	"Startup complete\000"
 269      74757020 
 269      636F6D70 
 269      6C657465 
 269      00
 270 0011 000000   		.align	2
 271              	.LC1:
 272 0014 09256400 		.ascii	"\011%d\000"
 273              		.align	2
 274              	.LC2:
ARM GAS  /var/folders/j4/zsgv5hks61j070b3g480n1j40000gn/T//ccIgmdQY.s 			page 12


 275 0018 00       		.ascii	"\000"
 276              		.section	.text.startup.main,"ax",%progbits
 277              		.align	1
 278              		.p2align 2,,3
 279              		.global	main
 280              		.syntax unified
 281              		.thumb
 282              		.thumb_func
 284              	main:
 285              	.LFB4270:
  35:DaisyDrone.cpp **** 
  36:DaisyDrone.cpp **** int main(void)
  37:DaisyDrone.cpp **** {
 286              		.loc 7 37 1 is_stmt 1 view -0
 287              		.cfi_startproc
 288              		@ args = 0, pretend = 0, frame = 32
 289              		@ frame_needed = 0, uses_anonymous_args = 0
  38:DaisyDrone.cpp **** 	hw.Configure();
 290              		.loc 7 38 2 view .LVU55
  37:DaisyDrone.cpp **** 	hw.Configure();
 291              		.loc 7 37 1 is_stmt 0 view .LVU56
 292 0000 10B5     		push	{r4, lr}
 293              		.cfi_def_cfa_offset 8
 294              		.cfi_offset 4, -8
 295              		.cfi_offset 14, -4
 296              		.loc 7 38 14 view .LVU57
 297 0002 4948     		ldr	r0, .L24
 298              	.LBB127:
 299              	.LBB128:
  17:../../Documents/Daisy/DaisyExamples/daisysp//Source/Synthesis/oscillator.h ****     /** Choices for output waveforms, POLYBLEP are appropriately labeled. Others are naive forms.
  18:../../Documents/Daisy/DaisyExamples/daisysp//Source/Synthesis/oscillator.h ****     */
  19:../../Documents/Daisy/DaisyExamples/daisysp//Source/Synthesis/oscillator.h ****     enum
  20:../../Documents/Daisy/DaisyExamples/daisysp//Source/Synthesis/oscillator.h ****     {
  21:../../Documents/Daisy/DaisyExamples/daisysp//Source/Synthesis/oscillator.h ****         WAVE_SIN,
  22:../../Documents/Daisy/DaisyExamples/daisysp//Source/Synthesis/oscillator.h ****         WAVE_TRI,
  23:../../Documents/Daisy/DaisyExamples/daisysp//Source/Synthesis/oscillator.h ****         WAVE_SAW,
  24:../../Documents/Daisy/DaisyExamples/daisysp//Source/Synthesis/oscillator.h ****         WAVE_RAMP,
  25:../../Documents/Daisy/DaisyExamples/daisysp//Source/Synthesis/oscillator.h ****         WAVE_SQUARE,
  26:../../Documents/Daisy/DaisyExamples/daisysp//Source/Synthesis/oscillator.h ****         WAVE_POLYBLEP_TRI,
  27:../../Documents/Daisy/DaisyExamples/daisysp//Source/Synthesis/oscillator.h ****         WAVE_POLYBLEP_SAW,
  28:../../Documents/Daisy/DaisyExamples/daisysp//Source/Synthesis/oscillator.h ****         WAVE_POLYBLEP_SQUARE,
  29:../../Documents/Daisy/DaisyExamples/daisysp//Source/Synthesis/oscillator.h ****         WAVE_LAST,
  30:../../Documents/Daisy/DaisyExamples/daisysp//Source/Synthesis/oscillator.h ****     };
  31:../../Documents/Daisy/DaisyExamples/daisysp//Source/Synthesis/oscillator.h **** 
  32:../../Documents/Daisy/DaisyExamples/daisysp//Source/Synthesis/oscillator.h **** 
  33:../../Documents/Daisy/DaisyExamples/daisysp//Source/Synthesis/oscillator.h ****     /** Initializes the Oscillator
  34:../../Documents/Daisy/DaisyExamples/daisysp//Source/Synthesis/oscillator.h **** 
  35:../../Documents/Daisy/DaisyExamples/daisysp//Source/Synthesis/oscillator.h ****         \param sample_rate - sample rate of the audio engine being run, and the frequency that the 
  36:../../Documents/Daisy/DaisyExamples/daisysp//Source/Synthesis/oscillator.h **** 
  37:../../Documents/Daisy/DaisyExamples/daisysp//Source/Synthesis/oscillator.h ****         Defaults:
  38:../../Documents/Daisy/DaisyExamples/daisysp//Source/Synthesis/oscillator.h ****         - freq_ = 100 Hz
  39:../../Documents/Daisy/DaisyExamples/daisysp//Source/Synthesis/oscillator.h ****         - amp_ = 0.5
  40:../../Documents/Daisy/DaisyExamples/daisysp//Source/Synthesis/oscillator.h ****         - waveform_ = sine wave.
  41:../../Documents/Daisy/DaisyExamples/daisysp//Source/Synthesis/oscillator.h ****     */
  42:../../Documents/Daisy/DaisyExamples/daisysp//Source/Synthesis/oscillator.h ****     void Init(float sample_rate)
  43:../../Documents/Daisy/DaisyExamples/daisysp//Source/Synthesis/oscillator.h ****     {
  44:../../Documents/Daisy/DaisyExamples/daisysp//Source/Synthesis/oscillator.h ****         sr_        = sample_rate;
ARM GAS  /var/folders/j4/zsgv5hks61j070b3g480n1j40000gn/T//ccIgmdQY.s 			page 13


 300              		.loc 6 44 20 view .LVU58
 301 0004 494C     		ldr	r4, .L24+4
 302              	.LBE128:
 303              	.LBE127:
  37:DaisyDrone.cpp **** 	hw.Configure();
 304              		.loc 7 37 1 view .LVU59
 305 0006 2DED028B 		vpush.64	{d8}
 306              		.cfi_def_cfa_offset 16
 307              		.cfi_offset 80, -16
 308              		.cfi_offset 81, -12
 309 000a 88B0     		sub	sp, sp, #32
 310              		.cfi_def_cfa_offset 48
 311              	.LBB133:
 312              	.LBB129:
  45:../../Documents/Daisy/DaisyExamples/daisysp//Source/Synthesis/oscillator.h ****         sr_recip_  = 1.0f / sample_rate;
  46:../../Documents/Daisy/DaisyExamples/daisysp//Source/Synthesis/oscillator.h ****         freq_      = 100.0f;
  47:../../Documents/Daisy/DaisyExamples/daisysp//Source/Synthesis/oscillator.h ****         amp_       = 0.5f;
 313              		.loc 6 47 20 view .LVU60
 314 000c B6EE008A 		vmov.f32	s16, #5.0e-1
 315              	.LBE129:
 316              	.LBE133:
 317              		.loc 7 38 14 view .LVU61
 318 0010 FFF7FEFF 		bl	_ZN5daisy9DaisySeed9ConfigureEv
 319              	.LVL16:
  39:DaisyDrone.cpp **** 	hw.Init();
 320              		.loc 7 39 2 is_stmt 1 view .LVU62
 321              		.loc 7 39 9 is_stmt 0 view .LVU63
 322 0014 0021     		movs	r1, #0
 323 0016 4448     		ldr	r0, .L24
 324 0018 FFF7FEFF 		bl	_ZN5daisy9DaisySeed4InitEb
 325              	.LVL17:
  40:DaisyDrone.cpp **** 
  41:DaisyDrone.cpp **** 	hw.StartLog(false/*block until serial connection opened*/);
 326              		.loc 7 41 2 is_stmt 1 view .LVU64
 327              	.LBB134:
 328              	.LBI134:
  23:../../Documents/Daisy/DaisyExamples/libdaisy//src/daisy_seed.h **** 
  24:../../Documents/Daisy/DaisyExamples/libdaisy//src/daisy_seed.h ****     /** 
  25:../../Documents/Daisy/DaisyExamples/libdaisy//src/daisy_seed.h ****     Configures the settings for all internal peripherals,
  26:../../Documents/Daisy/DaisyExamples/libdaisy//src/daisy_seed.h ****     but does not initialize them.
  27:../../Documents/Daisy/DaisyExamples/libdaisy//src/daisy_seed.h ****     This allows for modification of the configuration
  28:../../Documents/Daisy/DaisyExamples/libdaisy//src/daisy_seed.h ****     handles prior to initialization.
  29:../../Documents/Daisy/DaisyExamples/libdaisy//src/daisy_seed.h ****     */
  30:../../Documents/Daisy/DaisyExamples/libdaisy//src/daisy_seed.h **** 
  31:../../Documents/Daisy/DaisyExamples/libdaisy//src/daisy_seed.h ****     //Defaults listed below:
  32:../../Documents/Daisy/DaisyExamples/libdaisy//src/daisy_seed.h ****     //TODO: Add defaults
  33:../../Documents/Daisy/DaisyExamples/libdaisy//src/daisy_seed.h **** 
  34:../../Documents/Daisy/DaisyExamples/libdaisy//src/daisy_seed.h ****     /** & */
  35:../../Documents/Daisy/DaisyExamples/libdaisy//src/daisy_seed.h ****     void Configure();
  36:../../Documents/Daisy/DaisyExamples/libdaisy//src/daisy_seed.h **** 
  37:../../Documents/Daisy/DaisyExamples/libdaisy//src/daisy_seed.h ****     /** 
  38:../../Documents/Daisy/DaisyExamples/libdaisy//src/daisy_seed.h ****     Initializes the Daisy Seed and the following peripherals:
  39:../../Documents/Daisy/DaisyExamples/libdaisy//src/daisy_seed.h ****     SDRAM, QSPI, 24-bit 48kHz Audio via AK4556, Internal USB,
  40:../../Documents/Daisy/DaisyExamples/libdaisy//src/daisy_seed.h ****     as well as the built-in LED and Testpoint.
  41:../../Documents/Daisy/DaisyExamples/libdaisy//src/daisy_seed.h **** 
  42:../../Documents/Daisy/DaisyExamples/libdaisy//src/daisy_seed.h ****     ADCs, DACs, and other special peripherals (such as I2C, SPI, etc.)
  43:../../Documents/Daisy/DaisyExamples/libdaisy//src/daisy_seed.h ****     can be initialized using their specific initializers within libdaisy
ARM GAS  /var/folders/j4/zsgv5hks61j070b3g480n1j40000gn/T//ccIgmdQY.s 			page 14


  44:../../Documents/Daisy/DaisyExamples/libdaisy//src/daisy_seed.h ****     for a specific application.
  45:../../Documents/Daisy/DaisyExamples/libdaisy//src/daisy_seed.h ****     */
  46:../../Documents/Daisy/DaisyExamples/libdaisy//src/daisy_seed.h ****     void Init(bool boost = false);
  47:../../Documents/Daisy/DaisyExamples/libdaisy//src/daisy_seed.h **** 
  48:../../Documents/Daisy/DaisyExamples/libdaisy//src/daisy_seed.h ****     /** 
  49:../../Documents/Daisy/DaisyExamples/libdaisy//src/daisy_seed.h ****     Deinitializes all peripherals automatically handled by `Init`.
  50:../../Documents/Daisy/DaisyExamples/libdaisy//src/daisy_seed.h ****     */
  51:../../Documents/Daisy/DaisyExamples/libdaisy//src/daisy_seed.h ****     void DeInit();
  52:../../Documents/Daisy/DaisyExamples/libdaisy//src/daisy_seed.h **** 
  53:../../Documents/Daisy/DaisyExamples/libdaisy//src/daisy_seed.h ****     /** 
  54:../../Documents/Daisy/DaisyExamples/libdaisy//src/daisy_seed.h ****     Wait some ms before going on.
  55:../../Documents/Daisy/DaisyExamples/libdaisy//src/daisy_seed.h ****     \param del Delay time in ms.
  56:../../Documents/Daisy/DaisyExamples/libdaisy//src/daisy_seed.h ****     */
  57:../../Documents/Daisy/DaisyExamples/libdaisy//src/daisy_seed.h ****     void DelayMs(size_t del);
  58:../../Documents/Daisy/DaisyExamples/libdaisy//src/daisy_seed.h **** 
  59:../../Documents/Daisy/DaisyExamples/libdaisy//src/daisy_seed.h ****     /** 
  60:../../Documents/Daisy/DaisyExamples/libdaisy//src/daisy_seed.h ****     Returns the gpio_pin corresponding to the index 0-31.
  61:../../Documents/Daisy/DaisyExamples/libdaisy//src/daisy_seed.h ****     For the given GPIO on the Daisy Seed (labeled 1-32 in docs).
  62:../../Documents/Daisy/DaisyExamples/libdaisy//src/daisy_seed.h ****     */
  63:../../Documents/Daisy/DaisyExamples/libdaisy//src/daisy_seed.h ****     static dsy_gpio_pin GetPin(uint8_t pin_idx);
  64:../../Documents/Daisy/DaisyExamples/libdaisy//src/daisy_seed.h **** 
  65:../../Documents/Daisy/DaisyExamples/libdaisy//src/daisy_seed.h ****     /** Begins the audio for the seeds builtin audio.
  66:../../Documents/Daisy/DaisyExamples/libdaisy//src/daisy_seed.h ****     the specified callback will get called whenever
  67:../../Documents/Daisy/DaisyExamples/libdaisy//src/daisy_seed.h ****     new data is ready to be prepared.
  68:../../Documents/Daisy/DaisyExamples/libdaisy//src/daisy_seed.h ****     */
  69:../../Documents/Daisy/DaisyExamples/libdaisy//src/daisy_seed.h ****     void StartAudio(AudioHandle::InterleavingAudioCallback cb);
  70:../../Documents/Daisy/DaisyExamples/libdaisy//src/daisy_seed.h **** 
  71:../../Documents/Daisy/DaisyExamples/libdaisy//src/daisy_seed.h ****     /** Begins the audio for the seeds builtin audio.
  72:../../Documents/Daisy/DaisyExamples/libdaisy//src/daisy_seed.h ****     the specified callback will get called whenever
  73:../../Documents/Daisy/DaisyExamples/libdaisy//src/daisy_seed.h ****     new data is ready to be prepared.
  74:../../Documents/Daisy/DaisyExamples/libdaisy//src/daisy_seed.h ****     This will use the newer non-interleaved callback.
  75:../../Documents/Daisy/DaisyExamples/libdaisy//src/daisy_seed.h ****     */
  76:../../Documents/Daisy/DaisyExamples/libdaisy//src/daisy_seed.h ****     void StartAudio(AudioHandle::AudioCallback cb);
  77:../../Documents/Daisy/DaisyExamples/libdaisy//src/daisy_seed.h **** 
  78:../../Documents/Daisy/DaisyExamples/libdaisy//src/daisy_seed.h ****     /** Changes to a new interleaved callback
  79:../../Documents/Daisy/DaisyExamples/libdaisy//src/daisy_seed.h ****      */
  80:../../Documents/Daisy/DaisyExamples/libdaisy//src/daisy_seed.h ****     void ChangeAudioCallback(AudioHandle::InterleavingAudioCallback cb);
  81:../../Documents/Daisy/DaisyExamples/libdaisy//src/daisy_seed.h **** 
  82:../../Documents/Daisy/DaisyExamples/libdaisy//src/daisy_seed.h ****     /** Changes to a new multichannel callback
  83:../../Documents/Daisy/DaisyExamples/libdaisy//src/daisy_seed.h ****      */
  84:../../Documents/Daisy/DaisyExamples/libdaisy//src/daisy_seed.h ****     void ChangeAudioCallback(AudioHandle::AudioCallback cb);
  85:../../Documents/Daisy/DaisyExamples/libdaisy//src/daisy_seed.h **** 
  86:../../Documents/Daisy/DaisyExamples/libdaisy//src/daisy_seed.h ****     /** Stops the audio if it is running. */
  87:../../Documents/Daisy/DaisyExamples/libdaisy//src/daisy_seed.h ****     void StopAudio();
  88:../../Documents/Daisy/DaisyExamples/libdaisy//src/daisy_seed.h **** 
  89:../../Documents/Daisy/DaisyExamples/libdaisy//src/daisy_seed.h ****     /** Updates the Audio Sample Rate, and reinitializes.
  90:../../Documents/Daisy/DaisyExamples/libdaisy//src/daisy_seed.h ****      ** Audio must be stopped for this to work.
  91:../../Documents/Daisy/DaisyExamples/libdaisy//src/daisy_seed.h ****      */
  92:../../Documents/Daisy/DaisyExamples/libdaisy//src/daisy_seed.h ****     void SetAudioSampleRate(SaiHandle::Config::SampleRate samplerate);
  93:../../Documents/Daisy/DaisyExamples/libdaisy//src/daisy_seed.h **** 
  94:../../Documents/Daisy/DaisyExamples/libdaisy//src/daisy_seed.h ****     /** Returns the audio sample rate in Hz as a floating point number.
  95:../../Documents/Daisy/DaisyExamples/libdaisy//src/daisy_seed.h ****      */
  96:../../Documents/Daisy/DaisyExamples/libdaisy//src/daisy_seed.h ****     float AudioSampleRate();
  97:../../Documents/Daisy/DaisyExamples/libdaisy//src/daisy_seed.h **** 
  98:../../Documents/Daisy/DaisyExamples/libdaisy//src/daisy_seed.h ****     /** Sets the number of samples processed per channel by the audio callback.
  99:../../Documents/Daisy/DaisyExamples/libdaisy//src/daisy_seed.h ****      */
 100:../../Documents/Daisy/DaisyExamples/libdaisy//src/daisy_seed.h ****     void SetAudioBlockSize(size_t blocksize);
ARM GAS  /var/folders/j4/zsgv5hks61j070b3g480n1j40000gn/T//ccIgmdQY.s 			page 15


 101:../../Documents/Daisy/DaisyExamples/libdaisy//src/daisy_seed.h **** 
 102:../../Documents/Daisy/DaisyExamples/libdaisy//src/daisy_seed.h ****     /** Returns the number of samples per channel in a block of audio. */
 103:../../Documents/Daisy/DaisyExamples/libdaisy//src/daisy_seed.h ****     size_t AudioBlockSize();
 104:../../Documents/Daisy/DaisyExamples/libdaisy//src/daisy_seed.h **** 
 105:../../Documents/Daisy/DaisyExamples/libdaisy//src/daisy_seed.h ****     /** Returns the rate in Hz that the Audio callback is called */
 106:../../Documents/Daisy/DaisyExamples/libdaisy//src/daisy_seed.h ****     float AudioCallbackRate() const;
 107:../../Documents/Daisy/DaisyExamples/libdaisy//src/daisy_seed.h **** 
 108:../../Documents/Daisy/DaisyExamples/libdaisy//src/daisy_seed.h ****     /** Sets the state of the built in LED
 109:../../Documents/Daisy/DaisyExamples/libdaisy//src/daisy_seed.h ****      */
 110:../../Documents/Daisy/DaisyExamples/libdaisy//src/daisy_seed.h ****     void SetLed(bool state);
 111:../../Documents/Daisy/DaisyExamples/libdaisy//src/daisy_seed.h **** 
 112:../../Documents/Daisy/DaisyExamples/libdaisy//src/daisy_seed.h ****     /** Sets the state of the test point near pin 10
 113:../../Documents/Daisy/DaisyExamples/libdaisy//src/daisy_seed.h ****      */
 114:../../Documents/Daisy/DaisyExamples/libdaisy//src/daisy_seed.h ****     void SetTestPoint(bool state);
 115:../../Documents/Daisy/DaisyExamples/libdaisy//src/daisy_seed.h **** 
 116:../../Documents/Daisy/DaisyExamples/libdaisy//src/daisy_seed.h ****     /** Print formatted debug log message
 117:../../Documents/Daisy/DaisyExamples/libdaisy//src/daisy_seed.h ****      */
 118:../../Documents/Daisy/DaisyExamples/libdaisy//src/daisy_seed.h ****     template <typename... VA>
 119:../../Documents/Daisy/DaisyExamples/libdaisy//src/daisy_seed.h ****     static void Print(const char* format, VA... va)
 120:../../Documents/Daisy/DaisyExamples/libdaisy//src/daisy_seed.h ****     {
 121:../../Documents/Daisy/DaisyExamples/libdaisy//src/daisy_seed.h ****         Log::Print(format, va...);
 122:../../Documents/Daisy/DaisyExamples/libdaisy//src/daisy_seed.h ****     }
 123:../../Documents/Daisy/DaisyExamples/libdaisy//src/daisy_seed.h **** 
 124:../../Documents/Daisy/DaisyExamples/libdaisy//src/daisy_seed.h ****     /** Print formatted debug log message with automatic line termination
 125:../../Documents/Daisy/DaisyExamples/libdaisy//src/daisy_seed.h ****     */
 126:../../Documents/Daisy/DaisyExamples/libdaisy//src/daisy_seed.h ****     template <typename... VA>
 127:../../Documents/Daisy/DaisyExamples/libdaisy//src/daisy_seed.h ****     static void PrintLine(const char* format, VA... va)
 128:../../Documents/Daisy/DaisyExamples/libdaisy//src/daisy_seed.h ****     {
 129:../../Documents/Daisy/DaisyExamples/libdaisy//src/daisy_seed.h ****         Log::PrintLine(format, va...);
 130:../../Documents/Daisy/DaisyExamples/libdaisy//src/daisy_seed.h ****     }
 131:../../Documents/Daisy/DaisyExamples/libdaisy//src/daisy_seed.h **** 
 132:../../Documents/Daisy/DaisyExamples/libdaisy//src/daisy_seed.h ****     /** Start the logging session. Optionally wait for terminal connection before proceeding.
 133:../../Documents/Daisy/DaisyExamples/libdaisy//src/daisy_seed.h ****     */
 134:../../Documents/Daisy/DaisyExamples/libdaisy//src/daisy_seed.h ****     static void StartLog(bool wait_for_pc = false)
 329              		.loc 1 134 17 view .LVU65
 330              	.LBB135:
 135:../../Documents/Daisy/DaisyExamples/libdaisy//src/daisy_seed.h ****     {
 136:../../Documents/Daisy/DaisyExamples/libdaisy//src/daisy_seed.h ****         Log::StartLog(wait_for_pc);
 331              		.loc 1 136 9 view .LVU66
 332              		.loc 1 136 22 is_stmt 0 view .LVU67
 333 001c 0020     		movs	r0, #0
 334 001e FFF7FEFF 		bl	_ZN5daisy6LoggerILNS_17LoggerDestinationE1EE8StartLogEb
 335              	.LVL18:
 336              		.loc 1 136 22 view .LVU68
 337              	.LBE135:
 338              	.LBE134:
  42:DaisyDrone.cpp **** 
  43:DaisyDrone.cpp ****     Led led1;
 339              		.loc 7 43 5 is_stmt 1 view .LVU69
 340              	.LBB136:
 341              	.LBI136:
 342              		.file 8 "../../Documents/Daisy/DaisyExamples/libdaisy//src/hid/led.h"
   1:../../Documents/Daisy/DaisyExamples/libdaisy//src/hid/led.h **** 
   2:../../Documents/Daisy/DaisyExamples/libdaisy//src/hid/led.h **** #pragma once
   3:../../Documents/Daisy/DaisyExamples/libdaisy//src/hid/led.h **** #ifndef DSY_LED_H
   4:../../Documents/Daisy/DaisyExamples/libdaisy//src/hid/led.h **** #define DSY_LED_H
   5:../../Documents/Daisy/DaisyExamples/libdaisy//src/hid/led.h **** #include "daisy_core.h"
ARM GAS  /var/folders/j4/zsgv5hks61j070b3g480n1j40000gn/T//ccIgmdQY.s 			page 16


   6:../../Documents/Daisy/DaisyExamples/libdaisy//src/hid/led.h **** #include "per/gpio.h"
   7:../../Documents/Daisy/DaisyExamples/libdaisy//src/hid/led.h **** 
   8:../../Documents/Daisy/DaisyExamples/libdaisy//src/hid/led.h **** /* TODO - Get this set up to work with the dev_leddriver stuff as well
   9:../../Documents/Daisy/DaisyExamples/libdaisy//src/hid/led.h **** - Setup Hardware PWM for pins that have it
  10:../../Documents/Daisy/DaisyExamples/libdaisy//src/hid/led.h **** */
  11:../../Documents/Daisy/DaisyExamples/libdaisy//src/hid/led.h **** 
  12:../../Documents/Daisy/DaisyExamples/libdaisy//src/hid/led.h **** namespace daisy
  13:../../Documents/Daisy/DaisyExamples/libdaisy//src/hid/led.h **** {
  14:../../Documents/Daisy/DaisyExamples/libdaisy//src/hid/led.h **** /**
  15:../../Documents/Daisy/DaisyExamples/libdaisy//src/hid/led.h ****     @brief LED Class providing simple Software PWM ability, etc \n 
  16:../../Documents/Daisy/DaisyExamples/libdaisy//src/hid/led.h ****     Eventually this will work with hardware PWM, and external LED Driver devices as well.
  17:../../Documents/Daisy/DaisyExamples/libdaisy//src/hid/led.h ****     @author shensley
  18:../../Documents/Daisy/DaisyExamples/libdaisy//src/hid/led.h ****     @date March 2020
  19:../../Documents/Daisy/DaisyExamples/libdaisy//src/hid/led.h ****     @ingroup feedback
  20:../../Documents/Daisy/DaisyExamples/libdaisy//src/hid/led.h **** */
  21:../../Documents/Daisy/DaisyExamples/libdaisy//src/hid/led.h **** class Led
  22:../../Documents/Daisy/DaisyExamples/libdaisy//src/hid/led.h **** {
  23:../../Documents/Daisy/DaisyExamples/libdaisy//src/hid/led.h ****   public:
  24:../../Documents/Daisy/DaisyExamples/libdaisy//src/hid/led.h ****     Led() {}
 343              		.loc 8 24 5 view .LVU70
 344              		.loc 8 24 5 is_stmt 0 view .LVU71
 345              	.LBE136:
  44:DaisyDrone.cpp ****     //Initialize led1. We'll plug it into pin 28.
  45:DaisyDrone.cpp ****     //false here indicates the value is uninverted
  46:DaisyDrone.cpp ****     led1.Init(hw.GetPin(28), false);	
 346              		.loc 7 46 5 is_stmt 1 view .LVU72
 347              		.loc 7 46 14 is_stmt 0 view .LVU73
 348 0022 1C20     		movs	r0, #28
 349 0024 FFF7FEFF 		bl	_ZN5daisy9DaisySeed6GetPinEh
 350              	.LVL19:
 351 0028 ADF80000 		strh	r0, [sp]	@ movhi
 352 002c 0099     		ldr	r1, [sp]
 353 002e 0022     		movs	r2, #0
 354 0030 9FED3F0A 		vldr.32	s0, .L24+8
 355 0034 01A8     		add	r0, sp, #4
 356 0036 FFF7FEFF 		bl	_ZN5daisy3Led4InitE12dsy_gpio_pinbf
 357              	.LVL20:
  47:DaisyDrone.cpp **** 
  48:DaisyDrone.cpp **** 	init_pots();
 358              		.loc 7 48 2 is_stmt 1 view .LVU74
 359              		.loc 7 48 11 is_stmt 0 view .LVU75
 360 003a FFF7FEFF 		bl	_Z9init_potsv
 361              	.LVL21:
  49:DaisyDrone.cpp **** 
  50:DaisyDrone.cpp ****     //Set up oscillator
  51:DaisyDrone.cpp ****     osc.Init( hw.AudioSampleRate() );
 362              		.loc 7 51 5 is_stmt 1 view .LVU76
 363              		.loc 7 51 13 is_stmt 0 view .LVU77
 364 003e 3A48     		ldr	r0, .L24
 365 0040 FFF7FEFF 		bl	_ZN5daisy9DaisySeed15AudioSampleRateEv
 366              	.LVL22:
 367              	.LBB137:
 368              	.LBB130:
  45:../../Documents/Daisy/DaisyExamples/daisysp//Source/Synthesis/oscillator.h ****         freq_      = 100.0f;
 369              		.loc 6 45 27 view .LVU78
 370 0044 B7EE006A 		vmov.f32	s12, #1.0e+0
 371              	.LBE130:
ARM GAS  /var/folders/j4/zsgv5hks61j070b3g480n1j40000gn/T//ccIgmdQY.s 			page 17


 372              	.LBE137:
 373              		.loc 7 51 13 view .LVU79
 374 0048 F0EE407A 		vmov.f32	s15, s0
 375              	.LVL23:
 376              	.LBB138:
 377              	.LBI127:
  42:../../Documents/Daisy/DaisyExamples/daisysp//Source/Synthesis/oscillator.h ****     {
 378              		.loc 6 42 10 is_stmt 1 view .LVU80
 379              	.LBB131:
  44:../../Documents/Daisy/DaisyExamples/daisysp//Source/Synthesis/oscillator.h ****         sr_recip_  = 1.0f / sample_rate;
 380              		.loc 6 44 9 view .LVU81
  46:../../Documents/Daisy/DaisyExamples/daisysp//Source/Synthesis/oscillator.h ****         amp_       = 0.5f;
 381              		.loc 6 46 20 is_stmt 0 view .LVU82
 382 004c 9FED397A 		vldr.32	s14, .L24+12
  48:../../Documents/Daisy/DaisyExamples/daisysp//Source/Synthesis/oscillator.h ****         phase_     = 0.0f;
 383              		.loc 6 48 20 view .LVU83
 384 0050 0023     		movs	r3, #0
  49:../../Documents/Daisy/DaisyExamples/daisysp//Source/Synthesis/oscillator.h ****         phase_inc_ = CalcPhaseInc(freq_);
 385              		.loc 6 49 34 view .LVU84
 386 0052 2046     		mov	r0, r4
 387 0054 B0EE470A 		vmov.f32	s0, s14
 388              	.LVL24:
  46:../../Documents/Daisy/DaisyExamples/daisysp//Source/Synthesis/oscillator.h ****         amp_       = 0.5f;
 389              		.loc 6 46 20 view .LVU85
 390 0058 84ED027A 		vstr.32	s14, [r4, #8]
  45:../../Documents/Daisy/DaisyExamples/daisysp//Source/Synthesis/oscillator.h ****         freq_      = 100.0f;
 391              		.loc 6 45 27 view .LVU86
 392 005c C6EE276A 		vdiv.f32	s13, s12, s15
  44:../../Documents/Daisy/DaisyExamples/daisysp//Source/Synthesis/oscillator.h ****         sr_recip_  = 1.0f / sample_rate;
 393              		.loc 6 44 20 view .LVU87
 394 0060 C4ED037A 		vstr.32	s15, [r4, #12]
  45:../../Documents/Daisy/DaisyExamples/daisysp//Source/Synthesis/oscillator.h ****         freq_      = 100.0f;
 395              		.loc 6 45 9 is_stmt 1 view .LVU88
  48:../../Documents/Daisy/DaisyExamples/daisysp//Source/Synthesis/oscillator.h ****         phase_inc_ = CalcPhaseInc(freq_);
 396              		.loc 6 48 20 is_stmt 0 view .LVU89
 397 0064 6361     		str	r3, [r4, #20]	@ float
  47:../../Documents/Daisy/DaisyExamples/daisysp//Source/Synthesis/oscillator.h ****         phase_     = 0.0f;
 398              		.loc 6 47 20 view .LVU90
 399 0066 84ED018A 		vstr.32	s16, [r4, #4]
  45:../../Documents/Daisy/DaisyExamples/daisysp//Source/Synthesis/oscillator.h ****         freq_      = 100.0f;
 400              		.loc 6 45 20 view .LVU91
 401 006a C4ED046A 		vstr.32	s13, [r4, #16]
  46:../../Documents/Daisy/DaisyExamples/daisysp//Source/Synthesis/oscillator.h ****         amp_       = 0.5f;
 402              		.loc 6 46 9 is_stmt 1 view .LVU92
  47:../../Documents/Daisy/DaisyExamples/daisysp//Source/Synthesis/oscillator.h ****         phase_     = 0.0f;
 403              		.loc 6 47 9 view .LVU93
  48:../../Documents/Daisy/DaisyExamples/daisysp//Source/Synthesis/oscillator.h ****         phase_inc_ = CalcPhaseInc(freq_);
 404              		.loc 6 48 9 view .LVU94
 405              		.loc 6 49 9 view .LVU95
 406              		.loc 6 49 34 is_stmt 0 view .LVU96
 407 006e FFF7FEFF 		bl	_ZN7daisysp10Oscillator12CalcPhaseIncEf
 408              	.LVL25:
 409              		.loc 6 49 34 view .LVU97
 410 0072 F0EE407A 		vmov.f32	s15, s0
  50:../../Documents/Daisy/DaisyExamples/daisysp//Source/Synthesis/oscillator.h ****         waveform_  = WAVE_SIN;
 411              		.loc 6 50 20 view .LVU98
 412 0076 0022     		movs	r2, #0
ARM GAS  /var/folders/j4/zsgv5hks61j070b3g480n1j40000gn/T//ccIgmdQY.s 			page 18


  51:../../Documents/Daisy/DaisyExamples/daisysp//Source/Synthesis/oscillator.h ****         eoc_       = true;
  52:../../Documents/Daisy/DaisyExamples/daisysp//Source/Synthesis/oscillator.h ****         eor_       = true;
 413              		.loc 6 52 20 view .LVU99
 414 0078 40F20113 		movw	r3, #257
 415              	.LBE131:
 416              	.LBE138:
 417              	.LBB139:
 418              	.LBB140:
  53:../../Documents/Daisy/DaisyExamples/daisysp//Source/Synthesis/oscillator.h ****     }
  54:../../Documents/Daisy/DaisyExamples/daisysp//Source/Synthesis/oscillator.h **** 
  55:../../Documents/Daisy/DaisyExamples/daisysp//Source/Synthesis/oscillator.h **** 
  56:../../Documents/Daisy/DaisyExamples/daisysp//Source/Synthesis/oscillator.h ****     /** Changes the frequency of the Oscillator, and recalculates phase increment.
  57:../../Documents/Daisy/DaisyExamples/daisysp//Source/Synthesis/oscillator.h ****     */
  58:../../Documents/Daisy/DaisyExamples/daisysp//Source/Synthesis/oscillator.h ****     inline void SetFreq(const float f)
  59:../../Documents/Daisy/DaisyExamples/daisysp//Source/Synthesis/oscillator.h ****     {
  60:../../Documents/Daisy/DaisyExamples/daisysp//Source/Synthesis/oscillator.h ****         freq_      = f;
 419              		.loc 6 60 20 view .LVU100
 420 007c 9FED2E0A 		vldr.32	s0, .L24+16
  61:../../Documents/Daisy/DaisyExamples/daisysp//Source/Synthesis/oscillator.h ****         phase_inc_ = CalcPhaseInc(f);
 421              		.loc 6 61 34 view .LVU101
 422 0080 2046     		mov	r0, r4
 423              	.LBE140:
 424              	.LBE139:
 425              	.LBB144:
 426              	.LBB132:
  50:../../Documents/Daisy/DaisyExamples/daisysp//Source/Synthesis/oscillator.h ****         eoc_       = true;
 427              		.loc 6 50 20 view .LVU102
 428 0082 2270     		strb	r2, [r4]
  49:../../Documents/Daisy/DaisyExamples/daisysp//Source/Synthesis/oscillator.h ****         waveform_  = WAVE_SIN;
 429              		.loc 6 49 20 view .LVU103
 430 0084 C4ED067A 		vstr.32	s15, [r4, #24]
  50:../../Documents/Daisy/DaisyExamples/daisysp//Source/Synthesis/oscillator.h ****         eoc_       = true;
 431              		.loc 6 50 9 is_stmt 1 view .LVU104
  51:../../Documents/Daisy/DaisyExamples/daisysp//Source/Synthesis/oscillator.h ****         eor_       = true;
 432              		.loc 6 51 9 view .LVU105
  52:../../Documents/Daisy/DaisyExamples/daisysp//Source/Synthesis/oscillator.h ****     }
 433              		.loc 6 52 9 view .LVU106
  52:../../Documents/Daisy/DaisyExamples/daisysp//Source/Synthesis/oscillator.h ****     }
 434              		.loc 6 52 20 is_stmt 0 view .LVU107
 435 0088 A384     		strh	r3, [r4, #36]	@ movhi
 436              	.LVL26:
  52:../../Documents/Daisy/DaisyExamples/daisysp//Source/Synthesis/oscillator.h ****     }
 437              		.loc 6 52 20 view .LVU108
 438              	.LBE132:
 439              	.LBE144:
  52:DaisyDrone.cpp ****     osc.SetWaveform(osc.WAVE_SIN);
 440              		.loc 7 52 5 is_stmt 1 view .LVU109
  62:../../Documents/Daisy/DaisyExamples/daisysp//Source/Synthesis/oscillator.h ****     }
  63:../../Documents/Daisy/DaisyExamples/daisysp//Source/Synthesis/oscillator.h **** 
  64:../../Documents/Daisy/DaisyExamples/daisysp//Source/Synthesis/oscillator.h **** 
  65:../../Documents/Daisy/DaisyExamples/daisysp//Source/Synthesis/oscillator.h ****     /** Sets the amplitude of the waveform.
  66:../../Documents/Daisy/DaisyExamples/daisysp//Source/Synthesis/oscillator.h ****     */
  67:../../Documents/Daisy/DaisyExamples/daisysp//Source/Synthesis/oscillator.h ****     inline void SetAmp(const float a) { amp_ = a; }
  68:../../Documents/Daisy/DaisyExamples/daisysp//Source/Synthesis/oscillator.h ****     /** Sets the waveform to be synthesized by the Process() function.
  69:../../Documents/Daisy/DaisyExamples/daisysp//Source/Synthesis/oscillator.h ****     */
  70:../../Documents/Daisy/DaisyExamples/daisysp//Source/Synthesis/oscillator.h ****     inline void SetWaveform(const uint8_t wf)
  71:../../Documents/Daisy/DaisyExamples/daisysp//Source/Synthesis/oscillator.h ****     {
ARM GAS  /var/folders/j4/zsgv5hks61j070b3g480n1j40000gn/T//ccIgmdQY.s 			page 19


  72:../../Documents/Daisy/DaisyExamples/daisysp//Source/Synthesis/oscillator.h ****         waveform_ = wf < WAVE_LAST ? wf : WAVE_SIN;
 441              		.loc 6 72 9 view .LVU110
  53:DaisyDrone.cpp ****     osc.SetAmp(0.5f);
 442              		.loc 7 53 5 view .LVU111
 443              	.LBB145:
 444              	.LBI145:
  67:../../Documents/Daisy/DaisyExamples/daisysp//Source/Synthesis/oscillator.h ****     /** Sets the waveform to be synthesized by the Process() function.
 445              		.loc 6 67 17 view .LVU112
 446              	.LBB146:
  67:../../Documents/Daisy/DaisyExamples/daisysp//Source/Synthesis/oscillator.h ****     /** Sets the waveform to be synthesized by the Process() function.
 447              		.loc 6 67 41 view .LVU113
  67:../../Documents/Daisy/DaisyExamples/daisysp//Source/Synthesis/oscillator.h ****     /** Sets the waveform to be synthesized by the Process() function.
 448              		.loc 6 67 41 is_stmt 0 view .LVU114
 449              	.LBE146:
 450              	.LBE145:
  54:DaisyDrone.cpp ****     osc.SetFreq(440);
 451              		.loc 7 54 5 is_stmt 1 view .LVU115
 452              	.LBB148:
 453              	.LBI139:
  58:../../Documents/Daisy/DaisyExamples/daisysp//Source/Synthesis/oscillator.h ****     {
 454              		.loc 6 58 17 view .LVU116
 455              	.LBB141:
  60:../../Documents/Daisy/DaisyExamples/daisysp//Source/Synthesis/oscillator.h ****         phase_inc_ = CalcPhaseInc(f);
 456              		.loc 6 60 9 view .LVU117
  61:../../Documents/Daisy/DaisyExamples/daisysp//Source/Synthesis/oscillator.h ****     }
 457              		.loc 6 61 9 view .LVU118
 458              	.LBE141:
 459              	.LBE148:
 460              	.LBB149:
 461              	.LBB147:
  67:../../Documents/Daisy/DaisyExamples/daisysp//Source/Synthesis/oscillator.h ****     /** Sets the waveform to be synthesized by the Process() function.
 462              		.loc 6 67 46 is_stmt 0 view .LVU119
 463 008a 84ED018A 		vstr.32	s16, [r4, #4]
 464              	.LBE147:
 465              	.LBE149:
 466              	.LBB150:
 467              	.LBB142:
  60:../../Documents/Daisy/DaisyExamples/daisysp//Source/Synthesis/oscillator.h ****         phase_inc_ = CalcPhaseInc(f);
 468              		.loc 6 60 20 view .LVU120
 469 008e 84ED020A 		vstr.32	s0, [r4, #8]
  61:../../Documents/Daisy/DaisyExamples/daisysp//Source/Synthesis/oscillator.h ****     }
 470              		.loc 6 61 34 view .LVU121
 471 0092 FFF7FEFF 		bl	_ZN7daisysp10Oscillator12CalcPhaseIncEf
 472              	.LVL27:
 473              	.LBE142:
 474              	.LBE150:
  55:DaisyDrone.cpp **** 
  56:DaisyDrone.cpp **** 	// NOTE: AGND and DGND must be connected for audio and ADC to work
  57:DaisyDrone.cpp **** 	hw.StartAudio(audio_callback);
 475              		.loc 7 57 15 view .LVU122
 476 0096 2448     		ldr	r0, .L24
 477 0098 2849     		ldr	r1, .L24+20
 478              	.LBB151:
 479              	.LBB143:
  61:../../Documents/Daisy/DaisyExamples/daisysp//Source/Synthesis/oscillator.h ****     }
 480              		.loc 6 61 20 view .LVU123
 481 009a 84ED060A 		vstr.32	s0, [r4, #24]
ARM GAS  /var/folders/j4/zsgv5hks61j070b3g480n1j40000gn/T//ccIgmdQY.s 			page 20


 482              	.LVL28:
  61:../../Documents/Daisy/DaisyExamples/daisysp//Source/Synthesis/oscillator.h ****     }
 483              		.loc 6 61 20 view .LVU124
 484              	.LBE143:
 485              	.LBE151:
 486              		.loc 7 57 2 is_stmt 1 view .LVU125
 487              		.loc 7 57 15 is_stmt 0 view .LVU126
 488 009e FFF7FEFF 		bl	_ZN5daisy9DaisySeed10StartAudioEPFvPKPKfPPfjE
 489              	.LVL29:
  58:DaisyDrone.cpp **** 
  59:DaisyDrone.cpp **** 	hw.PrintLine("Startup complete");
 490              		.loc 7 59 2 is_stmt 1 view .LVU127
 491              	.LBB152:
 492              	.LBI152:
 127:../../Documents/Daisy/DaisyExamples/libdaisy//src/daisy_seed.h ****     {
 493              		.loc 1 127 17 view .LVU128
 494              	.LBB153:
 129:../../Documents/Daisy/DaisyExamples/libdaisy//src/daisy_seed.h ****     }
 495              		.loc 1 129 23 is_stmt 0 view .LVU129
 496 00a2 2748     		ldr	r0, .L24+24
 497 00a4 FFF7FEFF 		bl	_ZN5daisy6LoggerILNS_17LoggerDestinationE1EE9PrintLineEPKcz
 498              	.LVL30:
 499              	.L22:
 129:../../Documents/Daisy/DaisyExamples/libdaisy//src/daisy_seed.h ****     }
 500              		.loc 1 129 23 view .LVU130
 501              	.LBE153:
 502              	.LBE152:
  60:DaisyDrone.cpp **** 
  61:DaisyDrone.cpp **** 	while(1)
 503              		.loc 7 61 2 is_stmt 1 view .LVU131
 504              	.LBB154:
  62:DaisyDrone.cpp **** 	{	
  63:DaisyDrone.cpp **** 		for( int p = 0; p < NUM_POTS; ++p )
 505              		.loc 7 63 3 view .LVU132
 506              	.LBB155:
 507              		.loc 7 63 21 view .LVU133
 508              	.LBB156:
  64:DaisyDrone.cpp **** 		{
  65:DaisyDrone.cpp **** 			const int pot_val = hw.adc.GetFloat(p) * 1000.0f;
 509              		.loc 7 65 4 view .LVU134
 510              		.loc 7 65 43 is_stmt 0 view .LVU135
 511 00a8 9FED218A 		vldr.32	s16, .L24+8
 512              		.loc 7 65 39 view .LVU136
 513 00ac 0021     		movs	r1, #0
 514 00ae 2548     		ldr	r0, .L24+28
 515 00b0 FFF7FEFF 		bl	_ZNK5daisy9AdcHandle8GetFloatEh
 516              	.LVL31:
  66:DaisyDrone.cpp **** 			hw.Print("\t%d", pot_val);
 517              		.loc 7 66 4 is_stmt 1 view .LVU137
 518              	.LBB157:
 519              	.LBI157:
 119:../../Documents/Daisy/DaisyExamples/libdaisy//src/daisy_seed.h ****     {
 520              		.loc 1 119 17 view .LVU138
 521              	.LBE157:
  65:DaisyDrone.cpp **** 			hw.Print("\t%d", pot_val);
 522              		.loc 7 65 43 is_stmt 0 view .LVU139
 523 00b4 20EE080A 		vmul.f32	s0, s0, s16
ARM GAS  /var/folders/j4/zsgv5hks61j070b3g480n1j40000gn/T//ccIgmdQY.s 			page 21


 524              	.LVL32:
 525              	.LBB160:
 526              	.LBB158:
 121:../../Documents/Daisy/DaisyExamples/libdaisy//src/daisy_seed.h ****     }
 527              		.loc 1 121 19 view .LVU140
 528 00b8 2348     		ldr	r0, .L24+32
 529 00ba FDEEC07A 		vcvt.s32.f32	s15, s0
 530 00be 17EE901A 		vmov	r1, s15	@ int
 531 00c2 FFF7FEFF 		bl	_ZN5daisy6LoggerILNS_17LoggerDestinationE1EE5PrintEPKcz
 532              	.LVL33:
 121:../../Documents/Daisy/DaisyExamples/libdaisy//src/daisy_seed.h ****     }
 533              		.loc 1 121 19 view .LVU141
 534              	.LBE158:
 535              	.LBE160:
 536              	.LBE156:
  63:DaisyDrone.cpp **** 		{
 537              		.loc 7 63 3 is_stmt 1 view .LVU142
  63:DaisyDrone.cpp **** 		{
 538              		.loc 7 63 21 view .LVU143
 539              	.LBB163:
  65:DaisyDrone.cpp **** 			hw.Print("\t%d", pot_val);
 540              		.loc 7 65 4 view .LVU144
  65:DaisyDrone.cpp **** 			hw.Print("\t%d", pot_val);
 541              		.loc 7 65 39 is_stmt 0 view .LVU145
 542 00c6 0121     		movs	r1, #1
 543 00c8 1E48     		ldr	r0, .L24+28
 544 00ca FFF7FEFF 		bl	_ZNK5daisy9AdcHandle8GetFloatEh
 545              	.LVL34:
 546              		.loc 7 66 4 is_stmt 1 view .LVU146
 547              	.LBB161:
 119:../../Documents/Daisy/DaisyExamples/libdaisy//src/daisy_seed.h ****     {
 548              		.loc 1 119 17 view .LVU147
 549              	.LBE161:
  65:DaisyDrone.cpp **** 			hw.Print("\t%d", pot_val);
 550              		.loc 7 65 43 is_stmt 0 view .LVU148
 551 00ce 20EE080A 		vmul.f32	s0, s0, s16
 552              	.LVL35:
 553              	.LBB162:
 554              	.LBB159:
 121:../../Documents/Daisy/DaisyExamples/libdaisy//src/daisy_seed.h ****     }
 555              		.loc 1 121 19 view .LVU149
 556 00d2 1D48     		ldr	r0, .L24+32
 557 00d4 FDEEC07A 		vcvt.s32.f32	s15, s0
 558 00d8 17EE901A 		vmov	r1, s15	@ int
 559 00dc FFF7FEFF 		bl	_ZN5daisy6LoggerILNS_17LoggerDestinationE1EE5PrintEPKcz
 560              	.LVL36:
 121:../../Documents/Daisy/DaisyExamples/libdaisy//src/daisy_seed.h ****     }
 561              		.loc 1 121 19 view .LVU150
 562              	.LBE159:
 563              	.LBE162:
 564              	.LBE163:
  63:DaisyDrone.cpp **** 		{
 565              		.loc 7 63 3 is_stmt 1 view .LVU151
  63:DaisyDrone.cpp **** 		{
 566              		.loc 7 63 21 view .LVU152
 567              	.LBE155:
  67:DaisyDrone.cpp **** 		}
ARM GAS  /var/folders/j4/zsgv5hks61j070b3g480n1j40000gn/T//ccIgmdQY.s 			page 22


  68:DaisyDrone.cpp **** 		hw.PrintLine("");
 568              		.loc 7 68 3 view .LVU153
 569              	.LBB164:
 570              	.LBI164:
 127:../../Documents/Daisy/DaisyExamples/libdaisy//src/daisy_seed.h ****     {
 571              		.loc 1 127 17 view .LVU154
 572              	.LBB165:
 129:../../Documents/Daisy/DaisyExamples/libdaisy//src/daisy_seed.h ****     }
 573              		.loc 1 129 23 is_stmt 0 view .LVU155
 574 00e0 1A48     		ldr	r0, .L24+36
 575 00e2 FFF7FEFF 		bl	_ZN5daisy6LoggerILNS_17LoggerDestinationE1EE9PrintLineEPKcz
 576              	.LVL37:
 129:../../Documents/Daisy/DaisyExamples/libdaisy//src/daisy_seed.h ****     }
 577              		.loc 1 129 23 view .LVU156
 578              	.LBE165:
 579              	.LBE164:
  69:DaisyDrone.cpp **** 
  70:DaisyDrone.cpp **** 		const float pot_val = hw.adc.GetFloat(0);
 580              		.loc 7 70 3 is_stmt 1 view .LVU157
 581              		.loc 7 70 40 is_stmt 0 view .LVU158
 582 00e6 0021     		movs	r1, #0
 583 00e8 1648     		ldr	r0, .L24+28
 584 00ea FFF7FEFF 		bl	_ZNK5daisy9AdcHandle8GetFloatEh
 585              	.LVL38:
  71:DaisyDrone.cpp **** 		osc.SetAmp(pot_val);
  72:DaisyDrone.cpp **** 		osc.SetFreq(pot_val*2000.0f);
 586              		.loc 7 72 14 view .LVU159
 587 00ee DFED187A 		vldr.32	s15, .L24+40
  70:DaisyDrone.cpp **** 		osc.SetAmp(pot_val);
 588              		.loc 7 70 40 view .LVU160
 589 00f2 B0EE408A 		vmov.f32	s16, s0
 590              	.LVL39:
  71:DaisyDrone.cpp **** 		osc.SetAmp(pot_val);
 591              		.loc 7 71 3 is_stmt 1 view .LVU161
 592              	.LBB166:
 593              	.LBI166:
  67:../../Documents/Daisy/DaisyExamples/daisysp//Source/Synthesis/oscillator.h ****     /** Sets the waveform to be synthesized by the Process() function.
 594              		.loc 6 67 17 view .LVU162
 595              	.LBB167:
  67:../../Documents/Daisy/DaisyExamples/daisysp//Source/Synthesis/oscillator.h ****     /** Sets the waveform to be synthesized by the Process() function.
 596              		.loc 6 67 41 view .LVU163
 597              	.LBE167:
 598              	.LBE166:
 599              	.LBB169:
 600              	.LBB170:
  61:../../Documents/Daisy/DaisyExamples/daisysp//Source/Synthesis/oscillator.h ****     }
 601              		.loc 6 61 34 is_stmt 0 view .LVU164
 602 00f6 0D48     		ldr	r0, .L24+4
 603              	.LBE170:
 604              	.LBE169:
 605              		.loc 7 72 14 view .LVU165
 606 00f8 20EE270A 		vmul.f32	s0, s0, s15
 607              	.LVL40:
 608              	.LBB173:
 609              	.LBB168:
  67:../../Documents/Daisy/DaisyExamples/daisysp//Source/Synthesis/oscillator.h ****     /** Sets the waveform to be synthesized by the Process() function.
 610              		.loc 6 67 46 view .LVU166
ARM GAS  /var/folders/j4/zsgv5hks61j070b3g480n1j40000gn/T//ccIgmdQY.s 			page 23


 611 00fc 84ED018A 		vstr.32	s16, [r4, #4]
 612              	.LVL41:
  67:../../Documents/Daisy/DaisyExamples/daisysp//Source/Synthesis/oscillator.h ****     /** Sets the waveform to be synthesized by the Process() function.
 613              		.loc 6 67 46 view .LVU167
 614              	.LBE168:
 615              	.LBE173:
 616              		.loc 7 72 3 is_stmt 1 view .LVU168
 617              	.LBB174:
 618              	.LBI169:
  58:../../Documents/Daisy/DaisyExamples/daisysp//Source/Synthesis/oscillator.h ****     {
 619              		.loc 6 58 17 view .LVU169
 620              	.LBB171:
  60:../../Documents/Daisy/DaisyExamples/daisysp//Source/Synthesis/oscillator.h ****         phase_inc_ = CalcPhaseInc(f);
 621              		.loc 6 60 9 view .LVU170
  60:../../Documents/Daisy/DaisyExamples/daisysp//Source/Synthesis/oscillator.h ****         phase_inc_ = CalcPhaseInc(f);
 622              		.loc 6 60 20 is_stmt 0 view .LVU171
 623 0100 84ED020A 		vstr.32	s0, [r4, #8]
  61:../../Documents/Daisy/DaisyExamples/daisysp//Source/Synthesis/oscillator.h ****     }
 624              		.loc 6 61 9 is_stmt 1 view .LVU172
  61:../../Documents/Daisy/DaisyExamples/daisysp//Source/Synthesis/oscillator.h ****     }
 625              		.loc 6 61 34 is_stmt 0 view .LVU173
 626 0104 FFF7FEFF 		bl	_ZN7daisysp10Oscillator12CalcPhaseIncEf
 627              	.LVL42:
  61:../../Documents/Daisy/DaisyExamples/daisysp//Source/Synthesis/oscillator.h ****     }
 628              		.loc 6 61 34 view .LVU174
 629 0108 F0EE407A 		vmov.f32	s15, s0
 630              	.LBE171:
 631              	.LBE174:
  73:DaisyDrone.cpp **** 
  74:DaisyDrone.cpp **** 		led1.Set(pot_val);
 632              		.loc 7 74 11 view .LVU175
 633 010c 01A8     		add	r0, sp, #4
 634 010e B0EE480A 		vmov.f32	s0, s16
 635              	.LBB175:
 636              	.LBB172:
  61:../../Documents/Daisy/DaisyExamples/daisysp//Source/Synthesis/oscillator.h ****     }
 637              		.loc 6 61 20 view .LVU176
 638 0112 C4ED067A 		vstr.32	s15, [r4, #24]
 639              	.LVL43:
  61:../../Documents/Daisy/DaisyExamples/daisysp//Source/Synthesis/oscillator.h ****     }
 640              		.loc 6 61 20 view .LVU177
 641              	.LBE172:
 642              	.LBE175:
 643              		.loc 7 74 3 is_stmt 1 view .LVU178
 644              		.loc 7 74 11 is_stmt 0 view .LVU179
 645 0116 FFF7FEFF 		bl	_ZN5daisy3Led3SetEf
 646              	.LVL44:
  75:DaisyDrone.cpp **** 		led1.Update();
 647              		.loc 7 75 3 is_stmt 1 view .LVU180
 648              		.loc 7 75 14 is_stmt 0 view .LVU181
 649 011a 01A8     		add	r0, sp, #4
 650 011c FFF7FEFF 		bl	_ZN5daisy3Led6UpdateEv
 651              	.LVL45:
  76:DaisyDrone.cpp **** 
  77:DaisyDrone.cpp ****         //wait 1 ms
  78:DaisyDrone.cpp ****         System::Delay(1);		
 652              		.loc 7 78 9 is_stmt 1 view .LVU182
ARM GAS  /var/folders/j4/zsgv5hks61j070b3g480n1j40000gn/T//ccIgmdQY.s 			page 24


 653              		.loc 7 78 22 is_stmt 0 view .LVU183
 654 0120 0120     		movs	r0, #1
 655 0122 FFF7FEFF 		bl	_ZN5daisy6System5DelayEm
 656              	.LVL46:
 657              	.LBE154:
  61:DaisyDrone.cpp **** 	{	
 658              		.loc 7 61 2 is_stmt 1 view .LVU184
 659 0126 BFE7     		b	.L22
 660              	.L25:
 661              		.align	2
 662              	.L24:
 663 0128 00000000 		.word	.LANCHOR1
 664 012c 00000000 		.word	.LANCHOR0
 665 0130 00007A44 		.word	1148846080
 666 0134 0000C842 		.word	1120403456
 667 0138 0000DC43 		.word	1138491392
 668 013c 00000000 		.word	_Z14audio_callbackPKPKfPPfj
 669 0140 00000000 		.word	.LC0
 670 0144 18000000 		.word	.LANCHOR1+24
 671 0148 14000000 		.word	.LC1
 672 014c 18000000 		.word	.LC2
 673 0150 0000FA44 		.word	1157234688
 674              		.cfi_endproc
 675              	.LFE4270:
 677              		.section	.text.startup._GLOBAL__sub_I_hw,"ax",%progbits
 678              		.align	1
 679              		.p2align 2,,3
 680              		.syntax unified
 681              		.thumb
 682              		.thumb_func
 684              	_GLOBAL__sub_I_hw:
 685              	.LFB4829:
  79:DaisyDrone.cpp **** 	}
  80:DaisyDrone.cpp **** }
 686              		.loc 7 80 1 view -0
 687              		.cfi_startproc
 688              		@ args = 0, pretend = 0, frame = 0
 689              		@ frame_needed = 0, uses_anonymous_args = 0
 690              	.LBB196:
 691              	.LBI196:
 692              		.loc 7 80 1 view .LVU186
 693              	.LVL47:
 694              	.LBB197:
 695              	.LBB198:
 696              	.LBI198:
  21:../../Documents/Daisy/DaisyExamples/libdaisy//src/daisy_seed.h ****     ~DaisySeed() {}
 697              		.loc 1 21 5 view .LVU187
 698              	.LBB199:
 699              	.LBB200:
 700              	.LBI200:
 701              		.file 9 "../../Documents/Daisy/DaisyExamples/libdaisy//src/per/qspi.h"
   1:../../Documents/Daisy/DaisyExamples/libdaisy//src/per/qspi.h **** #ifndef DSY_QSPI
   2:../../Documents/Daisy/DaisyExamples/libdaisy//src/per/qspi.h **** #define DSY_QSPI /**< Macro */
   3:../../Documents/Daisy/DaisyExamples/libdaisy//src/per/qspi.h **** 
   4:../../Documents/Daisy/DaisyExamples/libdaisy//src/per/qspi.h **** #ifndef UNIT_TEST // for unit tests, a dummy implementation
   5:../../Documents/Daisy/DaisyExamples/libdaisy//src/per/qspi.h **** 
   6:../../Documents/Daisy/DaisyExamples/libdaisy//src/per/qspi.h **** #include <cstdint>
ARM GAS  /var/folders/j4/zsgv5hks61j070b3g480n1j40000gn/T//ccIgmdQY.s 			page 25


   7:../../Documents/Daisy/DaisyExamples/libdaisy//src/per/qspi.h **** #include "daisy_core.h" // Added for dsy_gpio_pin typedef
   8:../../Documents/Daisy/DaisyExamples/libdaisy//src/per/qspi.h **** 
   9:../../Documents/Daisy/DaisyExamples/libdaisy//src/per/qspi.h **** #define DSY_QSPI_TEXT       \
  10:../../Documents/Daisy/DaisyExamples/libdaisy//src/per/qspi.h ****     __attribute__((section( \
  11:../../Documents/Daisy/DaisyExamples/libdaisy//src/per/qspi.h ****         ".qspiflash_text"))) /**< used for reading memory in memory_mapped mode. */
  12:../../Documents/Daisy/DaisyExamples/libdaisy//src/per/qspi.h **** #define DSY_QSPI_DATA       \
  13:../../Documents/Daisy/DaisyExamples/libdaisy//src/per/qspi.h ****     __attribute__((section( \
  14:../../Documents/Daisy/DaisyExamples/libdaisy//src/per/qspi.h ****         ".qspiflash_data"))) /**< used for reading memory in memory_mapped mode. */
  15:../../Documents/Daisy/DaisyExamples/libdaisy//src/per/qspi.h **** #define DSY_QSPI_BSS        \
  16:../../Documents/Daisy/DaisyExamples/libdaisy//src/per/qspi.h ****     __attribute__((section( \
  17:../../Documents/Daisy/DaisyExamples/libdaisy//src/per/qspi.h ****         ".qspiflash_bss"))) /**< used for reading memory in memory_mapped mode. */
  18:../../Documents/Daisy/DaisyExamples/libdaisy//src/per/qspi.h **** 
  19:../../Documents/Daisy/DaisyExamples/libdaisy//src/per/qspi.h **** namespace daisy
  20:../../Documents/Daisy/DaisyExamples/libdaisy//src/per/qspi.h **** {
  21:../../Documents/Daisy/DaisyExamples/libdaisy//src/per/qspi.h **** /** @addtogroup serial
  22:../../Documents/Daisy/DaisyExamples/libdaisy//src/per/qspi.h **** @{
  23:../../Documents/Daisy/DaisyExamples/libdaisy//src/per/qspi.h **** */
  24:../../Documents/Daisy/DaisyExamples/libdaisy//src/per/qspi.h **** 
  25:../../Documents/Daisy/DaisyExamples/libdaisy//src/per/qspi.h **** /** 
  26:../../Documents/Daisy/DaisyExamples/libdaisy//src/per/qspi.h ****  Driver for QSPI peripheral to interface with external flash memory. \n 
  27:../../Documents/Daisy/DaisyExamples/libdaisy//src/per/qspi.h ****     Currently supported QSPI Devices: \n 
  28:../../Documents/Daisy/DaisyExamples/libdaisy//src/per/qspi.h ****     * IS25LP080D
  29:../../Documents/Daisy/DaisyExamples/libdaisy//src/per/qspi.h **** */
  30:../../Documents/Daisy/DaisyExamples/libdaisy//src/per/qspi.h **** class QSPIHandle
  31:../../Documents/Daisy/DaisyExamples/libdaisy//src/per/qspi.h **** {
  32:../../Documents/Daisy/DaisyExamples/libdaisy//src/per/qspi.h ****   public:
  33:../../Documents/Daisy/DaisyExamples/libdaisy//src/per/qspi.h ****     enum Result
  34:../../Documents/Daisy/DaisyExamples/libdaisy//src/per/qspi.h ****     {
  35:../../Documents/Daisy/DaisyExamples/libdaisy//src/per/qspi.h ****         OK = 0,
  36:../../Documents/Daisy/DaisyExamples/libdaisy//src/per/qspi.h ****         ERR
  37:../../Documents/Daisy/DaisyExamples/libdaisy//src/per/qspi.h ****     };
  38:../../Documents/Daisy/DaisyExamples/libdaisy//src/per/qspi.h **** 
  39:../../Documents/Daisy/DaisyExamples/libdaisy//src/per/qspi.h ****     /** Indicates the current status of the module. 
  40:../../Documents/Daisy/DaisyExamples/libdaisy//src/per/qspi.h ****          *  Warnings are indicated by a leading W.
  41:../../Documents/Daisy/DaisyExamples/libdaisy//src/per/qspi.h ****          *  Errors are indicated by a leading E and cause an immediate exit.
  42:../../Documents/Daisy/DaisyExamples/libdaisy//src/per/qspi.h ****          * 
  43:../../Documents/Daisy/DaisyExamples/libdaisy//src/per/qspi.h ****          *  \param GOOD - No errors have been reported.
  44:../../Documents/Daisy/DaisyExamples/libdaisy//src/per/qspi.h ****          *  \param E_HAL_ERROR - HAL code did not return HAL_OK.
  45:../../Documents/Daisy/DaisyExamples/libdaisy//src/per/qspi.h ****          *  \param E_SWITCHING_MODES - An error was encountered while switching QSPI peripheral mod
  46:../../Documents/Daisy/DaisyExamples/libdaisy//src/per/qspi.h ****          *  \param E_INVALID_MODE - QSPI should not be written to while the program is executing fr
  47:../../Documents/Daisy/DaisyExamples/libdaisy//src/per/qspi.h ****          */
  48:../../Documents/Daisy/DaisyExamples/libdaisy//src/per/qspi.h ****     enum Status
  49:../../Documents/Daisy/DaisyExamples/libdaisy//src/per/qspi.h ****     {
  50:../../Documents/Daisy/DaisyExamples/libdaisy//src/per/qspi.h ****         GOOD = 0,
  51:../../Documents/Daisy/DaisyExamples/libdaisy//src/per/qspi.h ****         E_HAL_ERROR,
  52:../../Documents/Daisy/DaisyExamples/libdaisy//src/per/qspi.h ****         E_SWITCHING_MODES,
  53:../../Documents/Daisy/DaisyExamples/libdaisy//src/per/qspi.h ****         E_INVALID_MODE,
  54:../../Documents/Daisy/DaisyExamples/libdaisy//src/per/qspi.h ****     };
  55:../../Documents/Daisy/DaisyExamples/libdaisy//src/per/qspi.h **** 
  56:../../Documents/Daisy/DaisyExamples/libdaisy//src/per/qspi.h ****     /** Configuration structure for interfacing with QSPI Driver */
  57:../../Documents/Daisy/DaisyExamples/libdaisy//src/per/qspi.h ****     struct Config
  58:../../Documents/Daisy/DaisyExamples/libdaisy//src/per/qspi.h ****     {
  59:../../Documents/Daisy/DaisyExamples/libdaisy//src/per/qspi.h ****         /** Flash Devices supported. (Both of these are more-or-less the same, just different sizes
  60:../../Documents/Daisy/DaisyExamples/libdaisy//src/per/qspi.h ****         enum Device
  61:../../Documents/Daisy/DaisyExamples/libdaisy//src/per/qspi.h ****         {
  62:../../Documents/Daisy/DaisyExamples/libdaisy//src/per/qspi.h ****             IS25LP080D,  /**< & */
  63:../../Documents/Daisy/DaisyExamples/libdaisy//src/per/qspi.h ****             IS25LP064A,  /**< & */
ARM GAS  /var/folders/j4/zsgv5hks61j070b3g480n1j40000gn/T//ccIgmdQY.s 			page 26


  64:../../Documents/Daisy/DaisyExamples/libdaisy//src/per/qspi.h ****             DEVICE_LAST, /**< & */
  65:../../Documents/Daisy/DaisyExamples/libdaisy//src/per/qspi.h ****         };
  66:../../Documents/Daisy/DaisyExamples/libdaisy//src/per/qspi.h **** 
  67:../../Documents/Daisy/DaisyExamples/libdaisy//src/per/qspi.h ****         /** 
  68:../../Documents/Daisy/DaisyExamples/libdaisy//src/per/qspi.h ****         Modes of operation.
  69:../../Documents/Daisy/DaisyExamples/libdaisy//src/per/qspi.h ****         Memory Mapped mode: QSPI configured so that the QSPI can be
  70:../../Documents/Daisy/DaisyExamples/libdaisy//src/per/qspi.h ****         read from starting address 0x90000000. Writing is not
  71:../../Documents/Daisy/DaisyExamples/libdaisy//src/per/qspi.h ****         possible in this mode. \n 
  72:../../Documents/Daisy/DaisyExamples/libdaisy//src/per/qspi.h ****         Indirect Polling mode: Device driver enabled. 
  73:../../Documents/Daisy/DaisyExamples/libdaisy//src/per/qspi.h ****         */
  74:../../Documents/Daisy/DaisyExamples/libdaisy//src/per/qspi.h ****         enum Mode
  75:../../Documents/Daisy/DaisyExamples/libdaisy//src/per/qspi.h ****         {
  76:../../Documents/Daisy/DaisyExamples/libdaisy//src/per/qspi.h ****             MEMORY_MAPPED,    /**< & */
  77:../../Documents/Daisy/DaisyExamples/libdaisy//src/per/qspi.h ****             INDIRECT_POLLING, /**< & */
  78:../../Documents/Daisy/DaisyExamples/libdaisy//src/per/qspi.h ****             MODE_LAST,
  79:../../Documents/Daisy/DaisyExamples/libdaisy//src/per/qspi.h ****         };
  80:../../Documents/Daisy/DaisyExamples/libdaisy//src/per/qspi.h **** 
  81:../../Documents/Daisy/DaisyExamples/libdaisy//src/per/qspi.h ****         //SCK,  CE# (active low)
  82:../../Documents/Daisy/DaisyExamples/libdaisy//src/per/qspi.h ****         struct
  83:../../Documents/Daisy/DaisyExamples/libdaisy//src/per/qspi.h ****         {
  84:../../Documents/Daisy/DaisyExamples/libdaisy//src/per/qspi.h ****             dsy_gpio_pin io0; /**< & */
  85:../../Documents/Daisy/DaisyExamples/libdaisy//src/per/qspi.h ****             dsy_gpio_pin io1; /**< & */
  86:../../Documents/Daisy/DaisyExamples/libdaisy//src/per/qspi.h ****             dsy_gpio_pin io2; /**< & */
  87:../../Documents/Daisy/DaisyExamples/libdaisy//src/per/qspi.h ****             dsy_gpio_pin io3; /**< & */
  88:../../Documents/Daisy/DaisyExamples/libdaisy//src/per/qspi.h ****             dsy_gpio_pin clk; /**< & */
  89:../../Documents/Daisy/DaisyExamples/libdaisy//src/per/qspi.h ****             dsy_gpio_pin ncs; /**< & */
  90:../../Documents/Daisy/DaisyExamples/libdaisy//src/per/qspi.h ****         } pin_config;
  91:../../Documents/Daisy/DaisyExamples/libdaisy//src/per/qspi.h **** 
  92:../../Documents/Daisy/DaisyExamples/libdaisy//src/per/qspi.h ****         Device device;
  93:../../Documents/Daisy/DaisyExamples/libdaisy//src/per/qspi.h ****         Mode   mode;
  94:../../Documents/Daisy/DaisyExamples/libdaisy//src/per/qspi.h ****     };
  95:../../Documents/Daisy/DaisyExamples/libdaisy//src/per/qspi.h **** 
  96:../../Documents/Daisy/DaisyExamples/libdaisy//src/per/qspi.h ****     /** 
  97:../../Documents/Daisy/DaisyExamples/libdaisy//src/per/qspi.h ****         Initializes QSPI peripheral, and Resets, and prepares memory for access.
  98:../../Documents/Daisy/DaisyExamples/libdaisy//src/per/qspi.h ****         \param config should be populated with the mode, device and pin_config before calling this 
  99:../../Documents/Daisy/DaisyExamples/libdaisy//src/per/qspi.h ****         \return Result::OK or Result::ERR
 100:../../Documents/Daisy/DaisyExamples/libdaisy//src/per/qspi.h ****         */
 101:../../Documents/Daisy/DaisyExamples/libdaisy//src/per/qspi.h ****     Result Init(const Config& config);
 102:../../Documents/Daisy/DaisyExamples/libdaisy//src/per/qspi.h **** 
 103:../../Documents/Daisy/DaisyExamples/libdaisy//src/per/qspi.h ****     /** Returns the current config. */
 104:../../Documents/Daisy/DaisyExamples/libdaisy//src/per/qspi.h ****     const Config& GetConfig() const;
 105:../../Documents/Daisy/DaisyExamples/libdaisy//src/per/qspi.h **** 
 106:../../Documents/Daisy/DaisyExamples/libdaisy//src/per/qspi.h ****     // Couldn't this just be called before anything else in init? That
 107:../../Documents/Daisy/DaisyExamples/libdaisy//src/per/qspi.h ****     // would make manually calling it unnecessary.
 108:../../Documents/Daisy/DaisyExamples/libdaisy//src/per/qspi.h ****     /** 
 109:../../Documents/Daisy/DaisyExamples/libdaisy//src/per/qspi.h ****         Deinitializes the peripheral
 110:../../Documents/Daisy/DaisyExamples/libdaisy//src/per/qspi.h ****         This should be called before reinitializing QSPI in a different mode.
 111:../../Documents/Daisy/DaisyExamples/libdaisy//src/per/qspi.h ****         \return Result::OK or Result::ERR
 112:../../Documents/Daisy/DaisyExamples/libdaisy//src/per/qspi.h ****         */
 113:../../Documents/Daisy/DaisyExamples/libdaisy//src/per/qspi.h ****     Result DeInit();
 114:../../Documents/Daisy/DaisyExamples/libdaisy//src/per/qspi.h **** 
 115:../../Documents/Daisy/DaisyExamples/libdaisy//src/per/qspi.h ****     /** 
 116:../../Documents/Daisy/DaisyExamples/libdaisy//src/per/qspi.h ****         Writes a single page to to the specified address on the QSPI chip.
 117:../../Documents/Daisy/DaisyExamples/libdaisy//src/per/qspi.h ****         For IS25LP*, page size is 256 bytes.
 118:../../Documents/Daisy/DaisyExamples/libdaisy//src/per/qspi.h ****         \param address Address to write to
 119:../../Documents/Daisy/DaisyExamples/libdaisy//src/per/qspi.h ****         \param size Buffer size
 120:../../Documents/Daisy/DaisyExamples/libdaisy//src/per/qspi.h ****         \param buffer Buffer to write
ARM GAS  /var/folders/j4/zsgv5hks61j070b3g480n1j40000gn/T//ccIgmdQY.s 			page 27


 121:../../Documents/Daisy/DaisyExamples/libdaisy//src/per/qspi.h ****         \return Result::OK or Result::ERR
 122:../../Documents/Daisy/DaisyExamples/libdaisy//src/per/qspi.h ****         */
 123:../../Documents/Daisy/DaisyExamples/libdaisy//src/per/qspi.h ****     Result WritePage(uint32_t address, uint32_t size, uint8_t* buffer);
 124:../../Documents/Daisy/DaisyExamples/libdaisy//src/per/qspi.h **** 
 125:../../Documents/Daisy/DaisyExamples/libdaisy//src/per/qspi.h ****     /** 
 126:../../Documents/Daisy/DaisyExamples/libdaisy//src/per/qspi.h ****         Writes data in buffer to to the QSPI. Starting at address to address+size 
 127:../../Documents/Daisy/DaisyExamples/libdaisy//src/per/qspi.h ****         \param address Address to write to
 128:../../Documents/Daisy/DaisyExamples/libdaisy//src/per/qspi.h ****         \param size Buffer size
 129:../../Documents/Daisy/DaisyExamples/libdaisy//src/per/qspi.h ****         \param buffer Buffer to write
 130:../../Documents/Daisy/DaisyExamples/libdaisy//src/per/qspi.h ****         \return Result::OK or Result::ERR
 131:../../Documents/Daisy/DaisyExamples/libdaisy//src/per/qspi.h ****         */
 132:../../Documents/Daisy/DaisyExamples/libdaisy//src/per/qspi.h ****     Result Write(uint32_t address, uint32_t size, uint8_t* buffer);
 133:../../Documents/Daisy/DaisyExamples/libdaisy//src/per/qspi.h **** 
 134:../../Documents/Daisy/DaisyExamples/libdaisy//src/per/qspi.h ****     /** 
 135:../../Documents/Daisy/DaisyExamples/libdaisy//src/per/qspi.h ****         Erases the area specified on the chip.
 136:../../Documents/Daisy/DaisyExamples/libdaisy//src/per/qspi.h ****         Erasures will happen by 4K, 32K or 64K increments.
 137:../../Documents/Daisy/DaisyExamples/libdaisy//src/per/qspi.h ****         Smallest erase possible is 4kB at a time. (on IS25LP*)
 138:../../Documents/Daisy/DaisyExamples/libdaisy//src/per/qspi.h ****         \param start_addr Address to begin erasing from
 139:../../Documents/Daisy/DaisyExamples/libdaisy//src/per/qspi.h ****         \param end_addr  Address to stop erasing at
 140:../../Documents/Daisy/DaisyExamples/libdaisy//src/per/qspi.h ****         \return Result::OK or Result::ERR
 141:../../Documents/Daisy/DaisyExamples/libdaisy//src/per/qspi.h ****         */
 142:../../Documents/Daisy/DaisyExamples/libdaisy//src/per/qspi.h ****     Result Erase(uint32_t start_addr, uint32_t end_addr);
 143:../../Documents/Daisy/DaisyExamples/libdaisy//src/per/qspi.h **** 
 144:../../Documents/Daisy/DaisyExamples/libdaisy//src/per/qspi.h ****     /**  
 145:../../Documents/Daisy/DaisyExamples/libdaisy//src/per/qspi.h ****          Erases a single sector of the chip.  
 146:../../Documents/Daisy/DaisyExamples/libdaisy//src/per/qspi.h ****         TODO: Document the size of this function. 
 147:../../Documents/Daisy/DaisyExamples/libdaisy//src/per/qspi.h ****         \param addr Address of sector to erase
 148:../../Documents/Daisy/DaisyExamples/libdaisy//src/per/qspi.h ****         \return Result::OK or Result::ERR
 149:../../Documents/Daisy/DaisyExamples/libdaisy//src/per/qspi.h ****         */
 150:../../Documents/Daisy/DaisyExamples/libdaisy//src/per/qspi.h ****     Result EraseSector(uint32_t address);
 151:../../Documents/Daisy/DaisyExamples/libdaisy//src/per/qspi.h **** 
 152:../../Documents/Daisy/DaisyExamples/libdaisy//src/per/qspi.h ****     /** Returns the current class status. Useful for debugging.
 153:../../Documents/Daisy/DaisyExamples/libdaisy//src/per/qspi.h ****      *  \returns Status
 154:../../Documents/Daisy/DaisyExamples/libdaisy//src/per/qspi.h ****      */
 155:../../Documents/Daisy/DaisyExamples/libdaisy//src/per/qspi.h ****     Status GetStatus();
 156:../../Documents/Daisy/DaisyExamples/libdaisy//src/per/qspi.h **** 
 157:../../Documents/Daisy/DaisyExamples/libdaisy//src/per/qspi.h ****     /** Returns a pointer to the actual memory used 
 158:../../Documents/Daisy/DaisyExamples/libdaisy//src/per/qspi.h ****      *  The memory at this address is read-only
 159:../../Documents/Daisy/DaisyExamples/libdaisy//src/per/qspi.h ****      *  to write to it use the Write function.
 160:../../Documents/Daisy/DaisyExamples/libdaisy//src/per/qspi.h ****      * 
 161:../../Documents/Daisy/DaisyExamples/libdaisy//src/per/qspi.h ****      *  \param offset returns the pointer starting this 
 162:../../Documents/Daisy/DaisyExamples/libdaisy//src/per/qspi.h ****      *                many bytes into the memory
 163:../../Documents/Daisy/DaisyExamples/libdaisy//src/per/qspi.h ****     */
 164:../../Documents/Daisy/DaisyExamples/libdaisy//src/per/qspi.h ****     void* GetData(uint32_t offset = 0);
 165:../../Documents/Daisy/DaisyExamples/libdaisy//src/per/qspi.h **** 
 166:../../Documents/Daisy/DaisyExamples/libdaisy//src/per/qspi.h ****     QSPIHandle() : pimpl_(nullptr) {}
 702              		.loc 9 166 5 view .LVU188
 703              	.LBE200:
 704              	.LBE199:
 705              	.LBE198:
 706              	.LBE197:
 707              	.LBE196:
 708              		.loc 7 80 1 is_stmt 0 view .LVU189
 709 0000 08B5     		push	{r3, lr}
 710              		.cfi_def_cfa_offset 8
 711              		.cfi_offset 3, -8
 712              		.cfi_offset 14, -4
ARM GAS  /var/folders/j4/zsgv5hks61j070b3g480n1j40000gn/T//ccIgmdQY.s 			page 28


 713              	.LBB223:
 714              	.LBB221:
 715              	.LBB218:
 716              	.LBB216:
 717              	.LBB205:
 718              	.LBB201:
 719              	.LBB202:
 720              		.loc 9 166 34 view .LVU190
 721 0002 0848     		ldr	r0, .L28
 722 0004 0023     		movs	r3, #0
 723              	.LBE202:
 724              	.LBE201:
 725              	.LBE205:
 726              	.LBE216:
 727              	.LBE218:
  10:DaisyDrone.cpp **** 
 728              		.loc 7 10 11 view .LVU191
 729 0006 084A     		ldr	r2, .L28+4
 730 0008 0849     		ldr	r1, .L28+8
 731              	.LBB219:
 732              	.LBB217:
 733              	.LBB206:
 734              	.LBB204:
 735              	.LBB203:
 736              		.loc 9 166 34 view .LVU192
 737 000a 0360     		str	r3, [r0]
 738              	.LVL48:
 739              		.loc 9 166 34 view .LVU193
 740              	.LBE203:
 741              	.LBE204:
 742              	.LBE206:
 743              	.LBB207:
 744              	.LBI207:
  62:../../Documents/Daisy/DaisyExamples/libdaisy//src/hid/audio.h ****     ~AudioHandle() {}
 745              		.loc 5 62 5 is_stmt 1 view .LVU194
 746              	.LBB208:
 747              	.LBB209:
  62:../../Documents/Daisy/DaisyExamples/libdaisy//src/hid/audio.h ****     ~AudioHandle() {}
 748              		.loc 5 62 35 is_stmt 0 view .LVU195
 749 000c 4361     		str	r3, [r0, #20]
 750              	.LVL49:
  62:../../Documents/Daisy/DaisyExamples/libdaisy//src/hid/audio.h ****     ~AudioHandle() {}
 751              		.loc 5 62 35 view .LVU196
 752              	.LBE209:
 753              	.LBE208:
 754              	.LBE207:
 755              	.LBB210:
 756              	.LBI210:
  84:../../Documents/Daisy/DaisyExamples/libdaisy//src/per/adc.h ****     ~AdcHandle() {}
 757              		.loc 4 84 5 is_stmt 1 view .LVU197
  84:../../Documents/Daisy/DaisyExamples/libdaisy//src/per/adc.h ****     ~AdcHandle() {}
 758              		.loc 4 84 5 is_stmt 0 view .LVU198
 759              	.LBE210:
 760              	.LBB211:
 761              	.LBI211:
 762              		.file 10 "../../Documents/Daisy/DaisyExamples/libdaisy//src/per/dac.h"
   1:../../Documents/Daisy/DaisyExamples/libdaisy//src/per/dac.h **** #pragma once
ARM GAS  /var/folders/j4/zsgv5hks61j070b3g480n1j40000gn/T//ccIgmdQY.s 			page 29


   2:../../Documents/Daisy/DaisyExamples/libdaisy//src/per/dac.h **** #ifndef DSY_DAC_H
   3:../../Documents/Daisy/DaisyExamples/libdaisy//src/per/dac.h **** #define DSY_DAC_H
   4:../../Documents/Daisy/DaisyExamples/libdaisy//src/per/dac.h **** 
   5:../../Documents/Daisy/DaisyExamples/libdaisy//src/per/dac.h **** #include "daisy_core.h"
   6:../../Documents/Daisy/DaisyExamples/libdaisy//src/per/dac.h **** 
   7:../../Documents/Daisy/DaisyExamples/libdaisy//src/per/dac.h **** namespace daisy
   8:../../Documents/Daisy/DaisyExamples/libdaisy//src/per/dac.h **** {
   9:../../Documents/Daisy/DaisyExamples/libdaisy//src/per/dac.h **** /** DAC handle for Built-in DAC Peripheral 
  10:../../Documents/Daisy/DaisyExamples/libdaisy//src/per/dac.h ****  ** 
  11:../../Documents/Daisy/DaisyExamples/libdaisy//src/per/dac.h ****  ** For now only Normal Mode is supported,
  12:../../Documents/Daisy/DaisyExamples/libdaisy//src/per/dac.h ****  ** Sample and hold mode provides reduced power consumption, but requires a bit more setup.
  13:../../Documents/Daisy/DaisyExamples/libdaisy//src/per/dac.h ****  **
  14:../../Documents/Daisy/DaisyExamples/libdaisy//src/per/dac.h ****  ** For now connecting the DAC through other internal periphearls is also not supported.
  15:../../Documents/Daisy/DaisyExamples/libdaisy//src/per/dac.h ****  **
  16:../../Documents/Daisy/DaisyExamples/libdaisy//src/per/dac.h ****  ** Since the DAC channels have dedicated pins we don't need to pass in a pin config like with
  17:../../Documents/Daisy/DaisyExamples/libdaisy//src/per/dac.h ****  ** other modules. However, it is still important to not try to use the DAC pins for anything else.
  18:../../Documents/Daisy/DaisyExamples/libdaisy//src/per/dac.h ****  ** DAC Channel 1 is on PA4, and DAC Channel 2 is on PA5
  19:../../Documents/Daisy/DaisyExamples/libdaisy//src/per/dac.h ****  ***/
  20:../../Documents/Daisy/DaisyExamples/libdaisy//src/per/dac.h **** class DacHandle
  21:../../Documents/Daisy/DaisyExamples/libdaisy//src/per/dac.h **** {
  22:../../Documents/Daisy/DaisyExamples/libdaisy//src/per/dac.h ****   public:
  23:../../Documents/Daisy/DaisyExamples/libdaisy//src/per/dac.h ****     /** Return Values for the DacHandle class */
  24:../../Documents/Daisy/DaisyExamples/libdaisy//src/per/dac.h ****     enum class Result
  25:../../Documents/Daisy/DaisyExamples/libdaisy//src/per/dac.h ****     {
  26:../../Documents/Daisy/DaisyExamples/libdaisy//src/per/dac.h ****         OK,
  27:../../Documents/Daisy/DaisyExamples/libdaisy//src/per/dac.h ****         ERR,
  28:../../Documents/Daisy/DaisyExamples/libdaisy//src/per/dac.h ****     };
  29:../../Documents/Daisy/DaisyExamples/libdaisy//src/per/dac.h **** 
  30:../../Documents/Daisy/DaisyExamples/libdaisy//src/per/dac.h ****     /** Selects which channel(s) will be configured for use. */
  31:../../Documents/Daisy/DaisyExamples/libdaisy//src/per/dac.h ****     enum class Channel
  32:../../Documents/Daisy/DaisyExamples/libdaisy//src/per/dac.h ****     {
  33:../../Documents/Daisy/DaisyExamples/libdaisy//src/per/dac.h ****         ONE,
  34:../../Documents/Daisy/DaisyExamples/libdaisy//src/per/dac.h ****         TWO,
  35:../../Documents/Daisy/DaisyExamples/libdaisy//src/per/dac.h ****         BOTH,
  36:../../Documents/Daisy/DaisyExamples/libdaisy//src/per/dac.h ****     };
  37:../../Documents/Daisy/DaisyExamples/libdaisy//src/per/dac.h **** 
  38:../../Documents/Daisy/DaisyExamples/libdaisy//src/per/dac.h ****     /** Sets the Mode for the DAC channels.
  39:../../Documents/Daisy/DaisyExamples/libdaisy//src/per/dac.h ****      **
  40:../../Documents/Daisy/DaisyExamples/libdaisy//src/per/dac.h ****      ** Polling mode uses the blocking mode to transmit a single value at a time.
  41:../../Documents/Daisy/DaisyExamples/libdaisy//src/per/dac.h ****      **
  42:../../Documents/Daisy/DaisyExamples/libdaisy//src/per/dac.h ****      ** DMA mode uses a buffer, and periodically transmits it triggering a 
  43:../../Documents/Daisy/DaisyExamples/libdaisy//src/per/dac.h ****      ** callback to fill the buffer when it is ready for more samples.
  44:../../Documents/Daisy/DaisyExamples/libdaisy//src/per/dac.h ****      ***/
  45:../../Documents/Daisy/DaisyExamples/libdaisy//src/per/dac.h ****     enum class Mode
  46:../../Documents/Daisy/DaisyExamples/libdaisy//src/per/dac.h ****     {
  47:../../Documents/Daisy/DaisyExamples/libdaisy//src/per/dac.h ****         POLLING,
  48:../../Documents/Daisy/DaisyExamples/libdaisy//src/per/dac.h ****         DMA,
  49:../../Documents/Daisy/DaisyExamples/libdaisy//src/per/dac.h ****     };
  50:../../Documents/Daisy/DaisyExamples/libdaisy//src/per/dac.h **** 
  51:../../Documents/Daisy/DaisyExamples/libdaisy//src/per/dac.h ****     /** Sets the number of bits per sample transmitted out of the DAC.
  52:../../Documents/Daisy/DaisyExamples/libdaisy//src/per/dac.h ****      ** The output range will be: 0V - VDDA
  53:../../Documents/Daisy/DaisyExamples/libdaisy//src/per/dac.h ****      ** The resolution will be roughly: bitdepth / (VDDA - 0V) 
  54:../../Documents/Daisy/DaisyExamples/libdaisy//src/per/dac.h ****      ***/
  55:../../Documents/Daisy/DaisyExamples/libdaisy//src/per/dac.h ****     enum class BitDepth
  56:../../Documents/Daisy/DaisyExamples/libdaisy//src/per/dac.h ****     {
  57:../../Documents/Daisy/DaisyExamples/libdaisy//src/per/dac.h ****         BITS_8,
  58:../../Documents/Daisy/DaisyExamples/libdaisy//src/per/dac.h ****         BITS_12
ARM GAS  /var/folders/j4/zsgv5hks61j070b3g480n1j40000gn/T//ccIgmdQY.s 			page 30


  59:../../Documents/Daisy/DaisyExamples/libdaisy//src/per/dac.h ****     };
  60:../../Documents/Daisy/DaisyExamples/libdaisy//src/per/dac.h **** 
  61:../../Documents/Daisy/DaisyExamples/libdaisy//src/per/dac.h ****     /** Sets whether the DAC output is buffered for higher drive ability. */
  62:../../Documents/Daisy/DaisyExamples/libdaisy//src/per/dac.h ****     enum class BufferState
  63:../../Documents/Daisy/DaisyExamples/libdaisy//src/per/dac.h ****     {
  64:../../Documents/Daisy/DaisyExamples/libdaisy//src/per/dac.h ****         ENABLED,
  65:../../Documents/Daisy/DaisyExamples/libdaisy//src/per/dac.h ****         DISABLED,
  66:../../Documents/Daisy/DaisyExamples/libdaisy//src/per/dac.h ****     };
  67:../../Documents/Daisy/DaisyExamples/libdaisy//src/per/dac.h **** 
  68:../../Documents/Daisy/DaisyExamples/libdaisy//src/per/dac.h ****     /** Configuration structure for initializing the DAC structure. */
  69:../../Documents/Daisy/DaisyExamples/libdaisy//src/per/dac.h ****     struct Config
  70:../../Documents/Daisy/DaisyExamples/libdaisy//src/per/dac.h ****     {
  71:../../Documents/Daisy/DaisyExamples/libdaisy//src/per/dac.h ****         /** Target Samplerate in Hz used to configure the internal 
  72:../../Documents/Daisy/DaisyExamples/libdaisy//src/per/dac.h ****          ** timebase for DMA mode. Does nothing in POLLING mode.
  73:../../Documents/Daisy/DaisyExamples/libdaisy//src/per/dac.h ****          ** If the value is 0 at Init time this will default to 48000Hz 
  74:../../Documents/Daisy/DaisyExamples/libdaisy//src/per/dac.h ****          ** otherwise the driver will attempt meet the target.*/
  75:../../Documents/Daisy/DaisyExamples/libdaisy//src/per/dac.h ****         uint32_t target_samplerate;
  76:../../Documents/Daisy/DaisyExamples/libdaisy//src/per/dac.h **** 
  77:../../Documents/Daisy/DaisyExamples/libdaisy//src/per/dac.h ****         Channel     chn;
  78:../../Documents/Daisy/DaisyExamples/libdaisy//src/per/dac.h ****         Mode        mode;
  79:../../Documents/Daisy/DaisyExamples/libdaisy//src/per/dac.h ****         BitDepth    bitdepth;
  80:../../Documents/Daisy/DaisyExamples/libdaisy//src/per/dac.h ****         BufferState buff_state;
  81:../../Documents/Daisy/DaisyExamples/libdaisy//src/per/dac.h ****     };
  82:../../Documents/Daisy/DaisyExamples/libdaisy//src/per/dac.h **** 
  83:../../Documents/Daisy/DaisyExamples/libdaisy//src/per/dac.h ****     DacHandle() : pimpl_(nullptr) {}
 763              		.loc 10 83 5 is_stmt 1 view .LVU199
 764              	.LBB212:
 765              	.LBB213:
 766              		.loc 10 83 33 is_stmt 0 view .LVU200
 767 000e 0362     		str	r3, [r0, #32]
 768              	.LVL50:
 769              		.loc 10 83 33 view .LVU201
 770              	.LBE213:
 771              	.LBE212:
 772              	.LBE211:
 773              	.LBB214:
 774              	.LBI214:
  40:../../Documents/Daisy/DaisyExamples/libdaisy//src/hid/usb.h **** 
 775              		.loc 3 40 5 is_stmt 1 view .LVU202
  40:../../Documents/Daisy/DaisyExamples/libdaisy//src/hid/usb.h **** 
 776              		.loc 3 40 5 is_stmt 0 view .LVU203
 777              	.LBE214:
 778              	.LBB215:
 779              	.LBI215:
  77:../../Documents/Daisy/DaisyExamples/libdaisy//src/sys/system.h ****     ~System() {}
 780              		.loc 2 77 5 is_stmt 1 view .LVU204
  77:../../Documents/Daisy/DaisyExamples/libdaisy//src/sys/system.h ****     ~System() {}
 781              		.loc 2 77 5 is_stmt 0 view .LVU205
 782              	.LBE215:
 783              	.LBE217:
 784              	.LBE219:
  10:DaisyDrone.cpp **** 
 785              		.loc 7 10 11 view .LVU206
 786 0010 FFF7FEFF 		bl	__aeabi_atexit
 787              	.LVL51:
 788              	.LBB220:
 789              	.LBI220:
ARM GAS  /var/folders/j4/zsgv5hks61j070b3g480n1j40000gn/T//ccIgmdQY.s 			page 31


  15:../../Documents/Daisy/DaisyExamples/daisysp//Source/Synthesis/oscillator.h ****     ~Oscillator() {}
 790              		.loc 6 15 5 is_stmt 1 view .LVU207
  15:../../Documents/Daisy/DaisyExamples/daisysp//Source/Synthesis/oscillator.h ****     ~Oscillator() {}
 791              		.loc 6 15 5 is_stmt 0 view .LVU208
 792              	.LBE220:
  12:DaisyDrone.cpp **** 
 793              		.loc 7 12 12 view .LVU209
 794 0014 044A     		ldr	r2, .L28+4
 795 0016 0649     		ldr	r1, .L28+12
 796 0018 0648     		ldr	r0, .L28+16
 797              	.LBE221:
 798              	.LBE223:
 799              		.loc 7 80 1 view .LVU210
 800 001a BDE80840 		pop	{r3, lr}
 801              		.cfi_restore 14
 802              		.cfi_restore 3
 803              		.cfi_def_cfa_offset 0
 804              	.LBB224:
 805              	.LBB222:
  12:DaisyDrone.cpp **** 
 806              		.loc 7 12 12 view .LVU211
 807 001e FFF7FEBF 		b	__aeabi_atexit
 808              	.LVL52:
 809              	.L29:
 810 0022 00BF     		.align	2
 811              	.L28:
 812 0024 00000000 		.word	.LANCHOR1
 813 0028 00000000 		.word	__dso_handle
 814 002c 00000000 		.word	_ZN5daisy9DaisySeedD1Ev
 815 0030 00000000 		.word	_ZN7daisysp10OscillatorD1Ev
 816 0034 00000000 		.word	.LANCHOR0
 817              	.LBE222:
 818              	.LBE224:
 819              		.cfi_endproc
 820              	.LFE4829:
 822              		.section	.init_array,"aw",%init_array
 823              		.align	2
 824 0000 00000000 		.word	_GLOBAL__sub_I_hw(target1)
 825              		.global	osc
 826              		.global	hw
 827              		.section	.bss.hw,"aw",%nobits
 828              		.align	2
 829              		.set	.LANCHOR1,. + 0
 832              	hw:
 833 0000 00000000 		.space	60
 833      00000000 
 833      00000000 
 833      00000000 
 833      00000000 
 834              		.section	.bss.osc,"aw",%nobits
 835              		.align	2
 836              		.set	.LANCHOR0,. + 0
 839              	osc:
 840 0000 00000000 		.space	40
 840      00000000 
 840      00000000 
 840      00000000 
ARM GAS  /var/folders/j4/zsgv5hks61j070b3g480n1j40000gn/T//ccIgmdQY.s 			page 32


 840      00000000 
 841              		.text
 842              	.Letext0:
 843              		.file 11 "/Applications/ARM/arm-none-eabi/include/machine/_default_types.h"
 844              		.file 12 "/Applications/ARM/arm-none-eabi/include/sys/_stdint.h"
 845              		.file 13 "/Applications/ARM/arm-none-eabi/include/stdint.h"
 846              		.file 14 "/Applications/ARM/lib/gcc/arm-none-eabi/10.3.1/include/stddef.h"
 847              		.file 15 "/Applications/ARM/arm-none-eabi/include/c++/10.3.1/cmath"
 848              		.file 16 "/Applications/ARM/arm-none-eabi/include/c++/10.3.1/bits/std_abs.h"
 849              		.file 17 "/Applications/ARM/arm-none-eabi/include/c++/10.3.1/cstdlib"
 850              		.file 18 "/Applications/ARM/arm-none-eabi/include/c++/10.3.1/cstdint"
 851              		.file 19 "/Applications/ARM/arm-none-eabi/include/c++/10.3.1/type_traits"
 852              		.file 20 "/Applications/ARM/arm-none-eabi/include/c++/10.3.1/debug/debug.h"
 853              		.file 21 "/Applications/ARM/arm-none-eabi/include/c++/10.3.1/arm-none-eabi/thumb/v7e-m+dp/hard/bit
 854              		.file 22 "/Applications/ARM/arm-none-eabi/include/c++/10.3.1/bits/algorithmfwd.h"
 855              		.file 23 "/Applications/ARM/arm-none-eabi/include/c++/10.3.1/bits/stl_pair.h"
 856              		.file 24 "/Applications/ARM/arm-none-eabi/include/c++/10.3.1/bits/exception_ptr.h"
 857              		.file 25 "/Applications/ARM/arm-none-eabi/include/c++/10.3.1/cstdarg"
 858              		.file 26 "/Applications/ARM/arm-none-eabi/include/c++/10.3.1/cstdio"
 859              		.file 27 "/Applications/ARM/arm-none-eabi/include/c++/10.3.1/cwchar"
 860              		.file 28 "/Applications/ARM/arm-none-eabi/include/c++/10.3.1/clocale"
 861              		.file 29 "/Applications/ARM/arm-none-eabi/include/c++/10.3.1/bits/basic_string.h"
 862              		.file 30 "/Applications/ARM/arm-none-eabi/include/c++/10.3.1/bits/stl_iterator.h"
 863              		.file 31 "/Applications/ARM/arm-none-eabi/include/c++/10.3.1/cstring"
 864              		.file 32 "/Applications/ARM/arm-none-eabi/include/c++/10.3.1/bits/predefined_ops.h"
 865              		.file 33 "/Applications/ARM/arm-none-eabi/include/sys/_types.h"
 866              		.file 34 "/Applications/ARM/arm-none-eabi/include/sys/reent.h"
 867              		.file 35 "/Applications/ARM/arm-none-eabi/include/sys/lock.h"
 868              		.file 36 "/Applications/ARM/arm-none-eabi/include/math.h"
 869              		.file 37 "/Applications/ARM/arm-none-eabi/include/stdlib.h"
 870              		.file 38 "/Applications/ARM/arm-none-eabi/include/c++/10.3.1/math.h"
 871              		.file 39 "/Applications/ARM/arm-none-eabi/include/c++/10.3.1/stdlib.h"
 872              		.file 40 "../../Documents/Daisy/DaisyExamples/libdaisy//src/daisy_core.h"
 873              		.file 41 "../../Documents/Daisy/DaisyExamples/libdaisy//src/per/tim.h"
 874              		.file 42 "../../Documents/Daisy/DaisyExamples/libdaisy//src/per/sai.h"
 875              		.file 43 "../../Documents/Daisy/DaisyExamples/libdaisy//src/hid/logger_impl.h"
 876              		.file 44 "../../Documents/Daisy/DaisyExamples/libdaisy//src/util/wav_format.h"
 877              		.file 45 "../../Documents/Daisy/DaisyExamples/libdaisy//src/hid/logger.h"
 878              		.file 46 "../../Documents/Daisy/DaisyExamples/libdaisy//src/per/gpio.h"
 879              		.file 47 "../../Documents/Daisy/DaisyExamples/libdaisy//src/dev/sdram.h"
 880              		.file 48 "/Applications/ARM/lib/gcc/arm-none-eabi/10.3.1/include/stdarg.h"
 881              		.file 49 "/Applications/ARM/arm-none-eabi/include/stdio.h"
 882              		.file 50 "../../Documents/Daisy/DaisyExamples/daisysp//Source/Control/adenv.h"
 883              		.file 51 "../../Documents/Daisy/DaisyExamples/daisysp//Source/Utility/dsp.h"
 884              		.file 52 "/Applications/ARM/arm-none-eabi/include/wchar.h"
 885              		.file 53 "/Applications/ARM/arm-none-eabi/include/locale.h"
 886              		.file 54 "/Applications/ARM/arm-none-eabi/include/string.h"
 887              		.file 55 "../../Documents/Daisy/DaisyExamples/libdaisy//src/dev/sr_595.h"
 888              		.file 56 "<built-in>"
ARM GAS  /var/folders/j4/zsgv5hks61j070b3g480n1j40000gn/T//ccIgmdQY.s 			page 33

