ARM GAS  /var/folders/j4/zsgv5hks61j070b3g480n1j40000gn/T//ccw8ESSH.s 			page 1


   1              		.cpu cortex-m7
   2              		.arch armv7e-m
   3              		.fpu fpv5-d16
   4              		.eabi_attribute 28, 1
   5              		.eabi_attribute 20, 1
   6              		.eabi_attribute 21, 1
   7              		.eabi_attribute 23, 3
   8              		.eabi_attribute 24, 1
   9              		.eabi_attribute 25, 1
  10              		.eabi_attribute 26, 1
  11              		.eabi_attribute 30, 2
  12              		.eabi_attribute 34, 1
  13              		.eabi_attribute 18, 4
  14              		.file	"DaisyDrone.cpp"
  15              		.text
  16              	.Ltext0:
  17              		.cfi_sections	.debug_frame
  18              		.section	.text._ZN5daisy9DaisySeedD2Ev,"axG",%progbits,_ZN5daisy9DaisySeedD5Ev,comdat
  19              		.align	1
  20              		.p2align 2,,3
  21              		.weak	_ZN5daisy9DaisySeedD2Ev
  22              		.syntax unified
  23              		.thumb
  24              		.thumb_func
  26              	_ZN5daisy9DaisySeedD2Ev:
  27              	.LVL0:
  28              	.LFB2040:
  29              		.file 1 "../../Documents/Daisy/DaisyExamples/libdaisy//src/daisy_seed.h"
   1:../../Documents/Daisy/DaisyExamples/libdaisy//src/daisy_seed.h **** #pragma once
   2:../../Documents/Daisy/DaisyExamples/libdaisy//src/daisy_seed.h **** #ifndef DSY_SEED_H
   3:../../Documents/Daisy/DaisyExamples/libdaisy//src/daisy_seed.h **** #define DSY_SEED_H
   4:../../Documents/Daisy/DaisyExamples/libdaisy//src/daisy_seed.h **** 
   5:../../Documents/Daisy/DaisyExamples/libdaisy//src/daisy_seed.h **** #include "daisy.h"
   6:../../Documents/Daisy/DaisyExamples/libdaisy//src/daisy_seed.h **** 
   7:../../Documents/Daisy/DaisyExamples/libdaisy//src/daisy_seed.h **** //Uncomment this out if you're still using the rev2 hardware
   8:../../Documents/Daisy/DaisyExamples/libdaisy//src/daisy_seed.h **** //#define SEED_REV2
   9:../../Documents/Daisy/DaisyExamples/libdaisy//src/daisy_seed.h **** 
  10:../../Documents/Daisy/DaisyExamples/libdaisy//src/daisy_seed.h **** namespace daisy
  11:../../Documents/Daisy/DaisyExamples/libdaisy//src/daisy_seed.h **** {
  12:../../Documents/Daisy/DaisyExamples/libdaisy//src/daisy_seed.h **** /**
  13:../../Documents/Daisy/DaisyExamples/libdaisy//src/daisy_seed.h ****    @brief This is the higher-level interface for the Daisy board. \n 
  14:../../Documents/Daisy/DaisyExamples/libdaisy//src/daisy_seed.h ****     All basic peripheral configuration/initialization is setup here. \n
  15:../../Documents/Daisy/DaisyExamples/libdaisy//src/daisy_seed.h **** 
  16:../../Documents/Daisy/DaisyExamples/libdaisy//src/daisy_seed.h ****    @ingroup boards
  17:../../Documents/Daisy/DaisyExamples/libdaisy//src/daisy_seed.h **** */
  18:../../Documents/Daisy/DaisyExamples/libdaisy//src/daisy_seed.h **** class DaisySeed
  19:../../Documents/Daisy/DaisyExamples/libdaisy//src/daisy_seed.h **** {
  20:../../Documents/Daisy/DaisyExamples/libdaisy//src/daisy_seed.h ****   public:
  21:../../Documents/Daisy/DaisyExamples/libdaisy//src/daisy_seed.h ****     DaisySeed() {}
  22:../../Documents/Daisy/DaisyExamples/libdaisy//src/daisy_seed.h ****     ~DaisySeed() {}
  30              		.loc 1 22 5 view -0
  31              		.cfi_startproc
  32              		@ args = 0, pretend = 0, frame = 0
  33              		@ frame_needed = 0, uses_anonymous_args = 0
  34              		@ link register save eliminated.
  35              	.LBB87:
  36              	.LBI87:
ARM GAS  /var/folders/j4/zsgv5hks61j070b3g480n1j40000gn/T//ccw8ESSH.s 			page 2


  37              		.file 2 "../../Documents/Daisy/DaisyExamples/libdaisy//src/sys/system.h"
   1:../../Documents/Daisy/DaisyExamples/libdaisy//src/sys/system.h **** #ifndef DSY_SYSTEM_H
   2:../../Documents/Daisy/DaisyExamples/libdaisy//src/sys/system.h **** #define DSY_SYSTEM_H
   3:../../Documents/Daisy/DaisyExamples/libdaisy//src/sys/system.h **** 
   4:../../Documents/Daisy/DaisyExamples/libdaisy//src/sys/system.h **** #ifndef UNIT_TEST // for unit tests, a dummy implementation is provided below
   5:../../Documents/Daisy/DaisyExamples/libdaisy//src/sys/system.h **** 
   6:../../Documents/Daisy/DaisyExamples/libdaisy//src/sys/system.h **** #include <cstdint>
   7:../../Documents/Daisy/DaisyExamples/libdaisy//src/sys/system.h **** #include "per/tim.h"
   8:../../Documents/Daisy/DaisyExamples/libdaisy//src/sys/system.h **** 
   9:../../Documents/Daisy/DaisyExamples/libdaisy//src/sys/system.h **** namespace daisy
  10:../../Documents/Daisy/DaisyExamples/libdaisy//src/sys/system.h **** {
  11:../../Documents/Daisy/DaisyExamples/libdaisy//src/sys/system.h **** /** A handle for interacting with the Core System. 
  12:../../Documents/Daisy/DaisyExamples/libdaisy//src/sys/system.h ****  ** This includes the Clock tree, MPU, global DMA initialization,
  13:../../Documents/Daisy/DaisyExamples/libdaisy//src/sys/system.h ****  ** cache handling, and any other necessary global initiailzation
  14:../../Documents/Daisy/DaisyExamples/libdaisy//src/sys/system.h ****  **
  15:../../Documents/Daisy/DaisyExamples/libdaisy//src/sys/system.h ****  ** @author shensley
  16:../../Documents/Daisy/DaisyExamples/libdaisy//src/sys/system.h ****  ** @addtogroup system
  17:../../Documents/Daisy/DaisyExamples/libdaisy//src/sys/system.h ****  */
  18:../../Documents/Daisy/DaisyExamples/libdaisy//src/sys/system.h **** class System
  19:../../Documents/Daisy/DaisyExamples/libdaisy//src/sys/system.h **** {
  20:../../Documents/Daisy/DaisyExamples/libdaisy//src/sys/system.h ****   public:
  21:../../Documents/Daisy/DaisyExamples/libdaisy//src/sys/system.h ****     /** Contains settings for initializing the System */
  22:../../Documents/Daisy/DaisyExamples/libdaisy//src/sys/system.h ****     struct Config
  23:../../Documents/Daisy/DaisyExamples/libdaisy//src/sys/system.h ****     {
  24:../../Documents/Daisy/DaisyExamples/libdaisy//src/sys/system.h ****         /** Specifies the system clock frequency that feeds APB/AHB clocks, etc. */
  25:../../Documents/Daisy/DaisyExamples/libdaisy//src/sys/system.h ****         enum class SysClkFreq
  26:../../Documents/Daisy/DaisyExamples/libdaisy//src/sys/system.h ****         {
  27:../../Documents/Daisy/DaisyExamples/libdaisy//src/sys/system.h ****             FREQ_400MHZ,
  28:../../Documents/Daisy/DaisyExamples/libdaisy//src/sys/system.h ****             FREQ_480MHZ,
  29:../../Documents/Daisy/DaisyExamples/libdaisy//src/sys/system.h ****         };
  30:../../Documents/Daisy/DaisyExamples/libdaisy//src/sys/system.h **** 
  31:../../Documents/Daisy/DaisyExamples/libdaisy//src/sys/system.h ****         /** Method to call on the struct to set to defaults
  32:../../Documents/Daisy/DaisyExamples/libdaisy//src/sys/system.h ****          ** CPU Freq set to 400MHz
  33:../../Documents/Daisy/DaisyExamples/libdaisy//src/sys/system.h ****          ** Cache Enabled 
  34:../../Documents/Daisy/DaisyExamples/libdaisy//src/sys/system.h ****          ** */
  35:../../Documents/Daisy/DaisyExamples/libdaisy//src/sys/system.h ****         void Defaults()
  36:../../Documents/Daisy/DaisyExamples/libdaisy//src/sys/system.h ****         {
  37:../../Documents/Daisy/DaisyExamples/libdaisy//src/sys/system.h ****             cpu_freq    = SysClkFreq::FREQ_400MHZ;
  38:../../Documents/Daisy/DaisyExamples/libdaisy//src/sys/system.h ****             use_dcache  = true;
  39:../../Documents/Daisy/DaisyExamples/libdaisy//src/sys/system.h ****             use_icache  = true;
  40:../../Documents/Daisy/DaisyExamples/libdaisy//src/sys/system.h ****             skip_clocks = false;
  41:../../Documents/Daisy/DaisyExamples/libdaisy//src/sys/system.h ****         }
  42:../../Documents/Daisy/DaisyExamples/libdaisy//src/sys/system.h **** 
  43:../../Documents/Daisy/DaisyExamples/libdaisy//src/sys/system.h ****         /** Method to call on the struct to set to boost mode:
  44:../../Documents/Daisy/DaisyExamples/libdaisy//src/sys/system.h ****          ** CPU Freq set to 480MHz
  45:../../Documents/Daisy/DaisyExamples/libdaisy//src/sys/system.h ****          ** Cache Enabled 
  46:../../Documents/Daisy/DaisyExamples/libdaisy//src/sys/system.h ****          ** */
  47:../../Documents/Daisy/DaisyExamples/libdaisy//src/sys/system.h ****         void Boost()
  48:../../Documents/Daisy/DaisyExamples/libdaisy//src/sys/system.h ****         {
  49:../../Documents/Daisy/DaisyExamples/libdaisy//src/sys/system.h ****             cpu_freq    = SysClkFreq::FREQ_480MHZ;
  50:../../Documents/Daisy/DaisyExamples/libdaisy//src/sys/system.h ****             use_dcache  = true;
  51:../../Documents/Daisy/DaisyExamples/libdaisy//src/sys/system.h ****             use_icache  = true;
  52:../../Documents/Daisy/DaisyExamples/libdaisy//src/sys/system.h ****             skip_clocks = false;
  53:../../Documents/Daisy/DaisyExamples/libdaisy//src/sys/system.h ****         }
  54:../../Documents/Daisy/DaisyExamples/libdaisy//src/sys/system.h **** 
  55:../../Documents/Daisy/DaisyExamples/libdaisy//src/sys/system.h ****         SysClkFreq cpu_freq;
  56:../../Documents/Daisy/DaisyExamples/libdaisy//src/sys/system.h ****         bool       use_dcache;
ARM GAS  /var/folders/j4/zsgv5hks61j070b3g480n1j40000gn/T//ccw8ESSH.s 			page 3


  57:../../Documents/Daisy/DaisyExamples/libdaisy//src/sys/system.h ****         bool       use_icache;
  58:../../Documents/Daisy/DaisyExamples/libdaisy//src/sys/system.h ****         bool       skip_clocks;
  59:../../Documents/Daisy/DaisyExamples/libdaisy//src/sys/system.h ****     };
  60:../../Documents/Daisy/DaisyExamples/libdaisy//src/sys/system.h **** 
  61:../../Documents/Daisy/DaisyExamples/libdaisy//src/sys/system.h ****     /** Describes the different regions of memory available to the Daisy
  62:../../Documents/Daisy/DaisyExamples/libdaisy//src/sys/system.h ****      * 
  63:../../Documents/Daisy/DaisyExamples/libdaisy//src/sys/system.h ****      */
  64:../../Documents/Daisy/DaisyExamples/libdaisy//src/sys/system.h ****     enum MemoryRegion
  65:../../Documents/Daisy/DaisyExamples/libdaisy//src/sys/system.h ****     {
  66:../../Documents/Daisy/DaisyExamples/libdaisy//src/sys/system.h ****         INTERNAL_FLASH = 0,
  67:../../Documents/Daisy/DaisyExamples/libdaisy//src/sys/system.h ****         ITCMRAM,
  68:../../Documents/Daisy/DaisyExamples/libdaisy//src/sys/system.h ****         DTCMRAM,
  69:../../Documents/Daisy/DaisyExamples/libdaisy//src/sys/system.h ****         SRAM_D1,
  70:../../Documents/Daisy/DaisyExamples/libdaisy//src/sys/system.h ****         SRAM_D2,
  71:../../Documents/Daisy/DaisyExamples/libdaisy//src/sys/system.h ****         SRAM_D3,
  72:../../Documents/Daisy/DaisyExamples/libdaisy//src/sys/system.h ****         SDRAM,
  73:../../Documents/Daisy/DaisyExamples/libdaisy//src/sys/system.h ****         QSPI,
  74:../../Documents/Daisy/DaisyExamples/libdaisy//src/sys/system.h ****         INVALID_ADDRESS,
  75:../../Documents/Daisy/DaisyExamples/libdaisy//src/sys/system.h ****     };
  76:../../Documents/Daisy/DaisyExamples/libdaisy//src/sys/system.h **** 
  77:../../Documents/Daisy/DaisyExamples/libdaisy//src/sys/system.h ****     System() {}
  78:../../Documents/Daisy/DaisyExamples/libdaisy//src/sys/system.h ****     ~System() {}
  38              		.loc 2 78 5 view .LVU1
  39              		.loc 2 78 5 is_stmt 0 view .LVU2
  40              	.LBE87:
  41              	.LBB88:
  42              	.LBI88:
  43              		.file 3 "../../Documents/Daisy/DaisyExamples/libdaisy//src/hid/usb.h"
   1:../../Documents/Daisy/DaisyExamples/libdaisy//src/hid/usb.h **** #pragma once
   2:../../Documents/Daisy/DaisyExamples/libdaisy//src/hid/usb.h **** #ifndef DSY_HID_USB_H
   3:../../Documents/Daisy/DaisyExamples/libdaisy//src/hid/usb.h **** #define DSY_HID_USB_H
   4:../../Documents/Daisy/DaisyExamples/libdaisy//src/hid/usb.h **** #include <stdint.h>
   5:../../Documents/Daisy/DaisyExamples/libdaisy//src/hid/usb.h **** #include <stdlib.h>
   6:../../Documents/Daisy/DaisyExamples/libdaisy//src/hid/usb.h **** 
   7:../../Documents/Daisy/DaisyExamples/libdaisy//src/hid/usb.h **** namespace daisy
   8:../../Documents/Daisy/DaisyExamples/libdaisy//src/hid/usb.h **** /** @addtogroup externals
   9:../../Documents/Daisy/DaisyExamples/libdaisy//src/hid/usb.h ****     @{
  10:../../Documents/Daisy/DaisyExamples/libdaisy//src/hid/usb.h **** */
  11:../../Documents/Daisy/DaisyExamples/libdaisy//src/hid/usb.h **** 
  12:../../Documents/Daisy/DaisyExamples/libdaisy//src/hid/usb.h **** {
  13:../../Documents/Daisy/DaisyExamples/libdaisy//src/hid/usb.h **** /** 
  14:../../Documents/Daisy/DaisyExamples/libdaisy//src/hid/usb.h ****     @brief Interface for initializing and using the USB Peripherals on the daisy
  15:../../Documents/Daisy/DaisyExamples/libdaisy//src/hid/usb.h ****     @author Stephen Hensley
  16:../../Documents/Daisy/DaisyExamples/libdaisy//src/hid/usb.h ****     @date December 2019
  17:../../Documents/Daisy/DaisyExamples/libdaisy//src/hid/usb.h **** */
  18:../../Documents/Daisy/DaisyExamples/libdaisy//src/hid/usb.h **** class UsbHandle
  19:../../Documents/Daisy/DaisyExamples/libdaisy//src/hid/usb.h **** {
  20:../../Documents/Daisy/DaisyExamples/libdaisy//src/hid/usb.h ****   public:
  21:../../Documents/Daisy/DaisyExamples/libdaisy//src/hid/usb.h ****     /** Return values for USBHandle Functions */
  22:../../Documents/Daisy/DaisyExamples/libdaisy//src/hid/usb.h ****     enum class Result
  23:../../Documents/Daisy/DaisyExamples/libdaisy//src/hid/usb.h ****     {
  24:../../Documents/Daisy/DaisyExamples/libdaisy//src/hid/usb.h ****         OK,
  25:../../Documents/Daisy/DaisyExamples/libdaisy//src/hid/usb.h ****         ERR,
  26:../../Documents/Daisy/DaisyExamples/libdaisy//src/hid/usb.h ****     };
  27:../../Documents/Daisy/DaisyExamples/libdaisy//src/hid/usb.h **** 
  28:../../Documents/Daisy/DaisyExamples/libdaisy//src/hid/usb.h ****     /** Specified which of the two USB Peripherals to initialize. */
  29:../../Documents/Daisy/DaisyExamples/libdaisy//src/hid/usb.h ****     enum UsbPeriph
ARM GAS  /var/folders/j4/zsgv5hks61j070b3g480n1j40000gn/T//ccw8ESSH.s 			page 4


  30:../../Documents/Daisy/DaisyExamples/libdaisy//src/hid/usb.h ****     {
  31:../../Documents/Daisy/DaisyExamples/libdaisy//src/hid/usb.h ****         FS_INTERNAL, /**< Internal pin */
  32:../../Documents/Daisy/DaisyExamples/libdaisy//src/hid/usb.h ****         FS_EXTERNAL, /**< FS External D+ pin is Pin 38 (GPIO32). FS External D- pin is Pin 37 (GPIO
  33:../../Documents/Daisy/DaisyExamples/libdaisy//src/hid/usb.h ****         FS_BOTH,     /**< Both */
  34:../../Documents/Daisy/DaisyExamples/libdaisy//src/hid/usb.h ****     };
  35:../../Documents/Daisy/DaisyExamples/libdaisy//src/hid/usb.h **** 
  36:../../Documents/Daisy/DaisyExamples/libdaisy//src/hid/usb.h **** 
  37:../../Documents/Daisy/DaisyExamples/libdaisy//src/hid/usb.h ****     /** Function called upon reception of a buffer */
  38:../../Documents/Daisy/DaisyExamples/libdaisy//src/hid/usb.h ****     typedef void (*ReceiveCallback)(uint8_t* buff, uint32_t* len);
  39:../../Documents/Daisy/DaisyExamples/libdaisy//src/hid/usb.h **** 
  40:../../Documents/Daisy/DaisyExamples/libdaisy//src/hid/usb.h ****     UsbHandle() {}
  41:../../Documents/Daisy/DaisyExamples/libdaisy//src/hid/usb.h **** 
  42:../../Documents/Daisy/DaisyExamples/libdaisy//src/hid/usb.h ****     ~UsbHandle() {}
  44              		.loc 3 42 5 is_stmt 1 view .LVU3
  45              		.loc 3 42 5 is_stmt 0 view .LVU4
  46              	.LBE88:
  47              	.LBB89:
  48              	.LBI89:
  49              		.file 4 "../../Documents/Daisy/DaisyExamples/libdaisy//src/per/adc.h"
   1:../../Documents/Daisy/DaisyExamples/libdaisy//src/per/adc.h **** #pragma once
   2:../../Documents/Daisy/DaisyExamples/libdaisy//src/per/adc.h **** #ifndef DSY_ADC_H
   3:../../Documents/Daisy/DaisyExamples/libdaisy//src/per/adc.h **** #define DSY_ADC_H /**< Macro */
   4:../../Documents/Daisy/DaisyExamples/libdaisy//src/per/adc.h **** #include <stdint.h>
   5:../../Documents/Daisy/DaisyExamples/libdaisy//src/per/adc.h **** #include <stdlib.h>
   6:../../Documents/Daisy/DaisyExamples/libdaisy//src/per/adc.h **** #include "daisy_core.h"
   7:../../Documents/Daisy/DaisyExamples/libdaisy//src/per/adc.h **** #include "per/gpio.h"
   8:../../Documents/Daisy/DaisyExamples/libdaisy//src/per/adc.h **** 
   9:../../Documents/Daisy/DaisyExamples/libdaisy//src/per/adc.h **** #define DSY_ADC_MAX_CHANNELS 16 /**< Maximum number of ADC channels */
  10:../../Documents/Daisy/DaisyExamples/libdaisy//src/per/adc.h **** 
  11:../../Documents/Daisy/DaisyExamples/libdaisy//src/per/adc.h **** namespace daisy
  12:../../Documents/Daisy/DaisyExamples/libdaisy//src/per/adc.h **** {
  13:../../Documents/Daisy/DaisyExamples/libdaisy//src/per/adc.h **** /** @addtogroup analog_digital_conversion
  14:../../Documents/Daisy/DaisyExamples/libdaisy//src/per/adc.h ****     @{
  15:../../Documents/Daisy/DaisyExamples/libdaisy//src/per/adc.h **** */
  16:../../Documents/Daisy/DaisyExamples/libdaisy//src/per/adc.h **** 
  17:../../Documents/Daisy/DaisyExamples/libdaisy//src/per/adc.h **** /* While there may not be many configuration options here,
  18:../../Documents/Daisy/DaisyExamples/libdaisy//src/per/adc.h **** using a struct like this allows us to add more configuration
  19:../../Documents/Daisy/DaisyExamples/libdaisy//src/per/adc.h **** later without breaking existing functionality.
  20:../../Documents/Daisy/DaisyExamples/libdaisy//src/per/adc.h **** */
  21:../../Documents/Daisy/DaisyExamples/libdaisy//src/per/adc.h **** 
  22:../../Documents/Daisy/DaisyExamples/libdaisy//src/per/adc.h **** /** Configuration Structure for a given channel */
  23:../../Documents/Daisy/DaisyExamples/libdaisy//src/per/adc.h **** struct AdcChannelConfig
  24:../../Documents/Daisy/DaisyExamples/libdaisy//src/per/adc.h **** {
  25:../../Documents/Daisy/DaisyExamples/libdaisy//src/per/adc.h ****     /** Which pin to use for multiplexing */
  26:../../Documents/Daisy/DaisyExamples/libdaisy//src/per/adc.h ****     enum MuxPin
  27:../../Documents/Daisy/DaisyExamples/libdaisy//src/per/adc.h ****     {
  28:../../Documents/Daisy/DaisyExamples/libdaisy//src/per/adc.h ****         MUX_SEL_0,    /**< & */
  29:../../Documents/Daisy/DaisyExamples/libdaisy//src/per/adc.h ****         MUX_SEL_1,    /**< & */
  30:../../Documents/Daisy/DaisyExamples/libdaisy//src/per/adc.h ****         MUX_SEL_2,    /**< & */
  31:../../Documents/Daisy/DaisyExamples/libdaisy//src/per/adc.h ****         MUX_SEL_LAST, /**< & */
  32:../../Documents/Daisy/DaisyExamples/libdaisy//src/per/adc.h ****     };
  33:../../Documents/Daisy/DaisyExamples/libdaisy//src/per/adc.h **** 
  34:../../Documents/Daisy/DaisyExamples/libdaisy//src/per/adc.h ****     /** Initializes a single ADC pin as an ADC. 
  35:../../Documents/Daisy/DaisyExamples/libdaisy//src/per/adc.h ****     \param pin Pin to init.
  36:../../Documents/Daisy/DaisyExamples/libdaisy//src/per/adc.h ****      */
  37:../../Documents/Daisy/DaisyExamples/libdaisy//src/per/adc.h ****     void InitSingle(dsy_gpio_pin pin);
  38:../../Documents/Daisy/DaisyExamples/libdaisy//src/per/adc.h **** 
ARM GAS  /var/folders/j4/zsgv5hks61j070b3g480n1j40000gn/T//ccw8ESSH.s 			page 5


  39:../../Documents/Daisy/DaisyExamples/libdaisy//src/per/adc.h ****     /** 
  40:../../Documents/Daisy/DaisyExamples/libdaisy//src/per/adc.h ****     Initializes a single ADC pin as a Multiplexed ADC.
  41:../../Documents/Daisy/DaisyExamples/libdaisy//src/per/adc.h ****     Requires a CD405X Multiplexer connected to the pin.
  42:../../Documents/Daisy/DaisyExamples/libdaisy//src/per/adc.h ****     You only need to supply the mux pins that are required,
  43:../../Documents/Daisy/DaisyExamples/libdaisy//src/per/adc.h ****     e.g. a 4052 mux would only require mux_0 and mux_1.
  44:../../Documents/Daisy/DaisyExamples/libdaisy//src/per/adc.h ****     Internal Callbacks handle the pin addressing.
  45:../../Documents/Daisy/DaisyExamples/libdaisy//src/per/adc.h ****     \param mux_channels must be 1-8
  46:../../Documents/Daisy/DaisyExamples/libdaisy//src/per/adc.h ****     \param mux_0 First mux pin
  47:../../Documents/Daisy/DaisyExamples/libdaisy//src/per/adc.h ****     \param mux_1 Second mux pin
  48:../../Documents/Daisy/DaisyExamples/libdaisy//src/per/adc.h ****     \param mux_2 Third mux pin
  49:../../Documents/Daisy/DaisyExamples/libdaisy//src/per/adc.h ****     \param adc_pin &
  50:../../Documents/Daisy/DaisyExamples/libdaisy//src/per/adc.h ****     */
  51:../../Documents/Daisy/DaisyExamples/libdaisy//src/per/adc.h ****     void InitMux(dsy_gpio_pin adc_pin,
  52:../../Documents/Daisy/DaisyExamples/libdaisy//src/per/adc.h ****                  size_t       mux_channels,
  53:../../Documents/Daisy/DaisyExamples/libdaisy//src/per/adc.h ****                  dsy_gpio_pin mux_0,
  54:../../Documents/Daisy/DaisyExamples/libdaisy//src/per/adc.h ****                  dsy_gpio_pin mux_1 = {DSY_GPIOX, 0},
  55:../../Documents/Daisy/DaisyExamples/libdaisy//src/per/adc.h ****                  dsy_gpio_pin mux_2 = {DSY_GPIOX, 0});
  56:../../Documents/Daisy/DaisyExamples/libdaisy//src/per/adc.h **** 
  57:../../Documents/Daisy/DaisyExamples/libdaisy//src/per/adc.h ****     dsy_gpio pin_;                   /**< & */
  58:../../Documents/Daisy/DaisyExamples/libdaisy//src/per/adc.h ****     dsy_gpio mux_pin_[MUX_SEL_LAST]; /**< & */
  59:../../Documents/Daisy/DaisyExamples/libdaisy//src/per/adc.h ****     uint8_t  mux_channels_;          /**< & */
  60:../../Documents/Daisy/DaisyExamples/libdaisy//src/per/adc.h **** };
  61:../../Documents/Daisy/DaisyExamples/libdaisy//src/per/adc.h **** 
  62:../../Documents/Daisy/DaisyExamples/libdaisy//src/per/adc.h **** /**
  63:../../Documents/Daisy/DaisyExamples/libdaisy//src/per/adc.h ****    Handler for analog to digital conversion
  64:../../Documents/Daisy/DaisyExamples/libdaisy//src/per/adc.h **** */
  65:../../Documents/Daisy/DaisyExamples/libdaisy//src/per/adc.h **** class AdcHandle
  66:../../Documents/Daisy/DaisyExamples/libdaisy//src/per/adc.h **** {
  67:../../Documents/Daisy/DaisyExamples/libdaisy//src/per/adc.h ****   public:
  68:../../Documents/Daisy/DaisyExamples/libdaisy//src/per/adc.h ****     /** Supported oversampling amounts */
  69:../../Documents/Daisy/DaisyExamples/libdaisy//src/per/adc.h ****     enum OverSampling
  70:../../Documents/Daisy/DaisyExamples/libdaisy//src/per/adc.h ****     {
  71:../../Documents/Daisy/DaisyExamples/libdaisy//src/per/adc.h ****         OVS_NONE, /**< & */
  72:../../Documents/Daisy/DaisyExamples/libdaisy//src/per/adc.h ****         OVS_4,    /**< & */
  73:../../Documents/Daisy/DaisyExamples/libdaisy//src/per/adc.h ****         OVS_8,    /**< & */
  74:../../Documents/Daisy/DaisyExamples/libdaisy//src/per/adc.h ****         OVS_16,   /**< & */
  75:../../Documents/Daisy/DaisyExamples/libdaisy//src/per/adc.h ****         OVS_32,   /**< & */
  76:../../Documents/Daisy/DaisyExamples/libdaisy//src/per/adc.h ****         OVS_64,   /**< & */
  77:../../Documents/Daisy/DaisyExamples/libdaisy//src/per/adc.h ****         OVS_128,  /**< & */
  78:../../Documents/Daisy/DaisyExamples/libdaisy//src/per/adc.h ****         OVS_256,  /**< & */
  79:../../Documents/Daisy/DaisyExamples/libdaisy//src/per/adc.h ****         OVS_512,  /**< & */
  80:../../Documents/Daisy/DaisyExamples/libdaisy//src/per/adc.h ****         OVS_1024, /**< & */
  81:../../Documents/Daisy/DaisyExamples/libdaisy//src/per/adc.h ****         OVS_LAST, /**< & */
  82:../../Documents/Daisy/DaisyExamples/libdaisy//src/per/adc.h ****     };
  83:../../Documents/Daisy/DaisyExamples/libdaisy//src/per/adc.h **** 
  84:../../Documents/Daisy/DaisyExamples/libdaisy//src/per/adc.h ****     AdcHandle() {}
  85:../../Documents/Daisy/DaisyExamples/libdaisy//src/per/adc.h ****     ~AdcHandle() {}
  50              		.loc 4 85 5 is_stmt 1 view .LVU5
  51              		.loc 4 85 5 is_stmt 0 view .LVU6
  52              	.LBE89:
  53              	.LBB90:
  54              	.LBI90:
  55              		.file 5 "../../Documents/Daisy/DaisyExamples/libdaisy//src/hid/audio.h"
   1:../../Documents/Daisy/DaisyExamples/libdaisy//src/hid/audio.h **** #ifndef DSY_AUDIO_H
   2:../../Documents/Daisy/DaisyExamples/libdaisy//src/hid/audio.h **** #define DSY_AUDIO_H /**< & */
   3:../../Documents/Daisy/DaisyExamples/libdaisy//src/hid/audio.h **** 
   4:../../Documents/Daisy/DaisyExamples/libdaisy//src/hid/audio.h **** #include "per/sai.h"
ARM GAS  /var/folders/j4/zsgv5hks61j070b3g480n1j40000gn/T//ccw8ESSH.s 			page 6


   5:../../Documents/Daisy/DaisyExamples/libdaisy//src/hid/audio.h **** 
   6:../../Documents/Daisy/DaisyExamples/libdaisy//src/hid/audio.h **** namespace daisy
   7:../../Documents/Daisy/DaisyExamples/libdaisy//src/hid/audio.h **** {
   8:../../Documents/Daisy/DaisyExamples/libdaisy//src/hid/audio.h **** class AudioHandle
   9:../../Documents/Daisy/DaisyExamples/libdaisy//src/hid/audio.h **** {
  10:../../Documents/Daisy/DaisyExamples/libdaisy//src/hid/audio.h ****   public:
  11:../../Documents/Daisy/DaisyExamples/libdaisy//src/hid/audio.h ****     /** Manually configurable details about the Audio Engine */
  12:../../Documents/Daisy/DaisyExamples/libdaisy//src/hid/audio.h ****     /** TODO: Figure out how to get samplerate in here. */
  13:../../Documents/Daisy/DaisyExamples/libdaisy//src/hid/audio.h ****     struct Config
  14:../../Documents/Daisy/DaisyExamples/libdaisy//src/hid/audio.h ****     {
  15:../../Documents/Daisy/DaisyExamples/libdaisy//src/hid/audio.h ****         size_t                        blocksize;
  16:../../Documents/Daisy/DaisyExamples/libdaisy//src/hid/audio.h ****         SaiHandle::Config::SampleRate samplerate;
  17:../../Documents/Daisy/DaisyExamples/libdaisy//src/hid/audio.h ****         float                         postgain;
  18:../../Documents/Daisy/DaisyExamples/libdaisy//src/hid/audio.h ****     };
  19:../../Documents/Daisy/DaisyExamples/libdaisy//src/hid/audio.h **** 
  20:../../Documents/Daisy/DaisyExamples/libdaisy//src/hid/audio.h ****     enum class Result
  21:../../Documents/Daisy/DaisyExamples/libdaisy//src/hid/audio.h ****     {
  22:../../Documents/Daisy/DaisyExamples/libdaisy//src/hid/audio.h ****         OK,
  23:../../Documents/Daisy/DaisyExamples/libdaisy//src/hid/audio.h ****         ERR,
  24:../../Documents/Daisy/DaisyExamples/libdaisy//src/hid/audio.h ****     };
  25:../../Documents/Daisy/DaisyExamples/libdaisy//src/hid/audio.h **** 
  26:../../Documents/Daisy/DaisyExamples/libdaisy//src/hid/audio.h ****     /** Non-Interleaving input buffer
  27:../../Documents/Daisy/DaisyExamples/libdaisy//src/hid/audio.h ****      * Buffer arranged by float[chn][sample] 
  28:../../Documents/Daisy/DaisyExamples/libdaisy//src/hid/audio.h ****      * const so that the user can't modify the input
  29:../../Documents/Daisy/DaisyExamples/libdaisy//src/hid/audio.h ****     */
  30:../../Documents/Daisy/DaisyExamples/libdaisy//src/hid/audio.h ****     typedef const float* const* InputBuffer;
  31:../../Documents/Daisy/DaisyExamples/libdaisy//src/hid/audio.h **** 
  32:../../Documents/Daisy/DaisyExamples/libdaisy//src/hid/audio.h ****     /** Non-Interleaving output buffer
  33:../../Documents/Daisy/DaisyExamples/libdaisy//src/hid/audio.h ****      * Arranged by float[chn][sample] 
  34:../../Documents/Daisy/DaisyExamples/libdaisy//src/hid/audio.h ****     */
  35:../../Documents/Daisy/DaisyExamples/libdaisy//src/hid/audio.h ****     typedef float** OutputBuffer;
  36:../../Documents/Daisy/DaisyExamples/libdaisy//src/hid/audio.h **** 
  37:../../Documents/Daisy/DaisyExamples/libdaisy//src/hid/audio.h ****     /** Type for a Non-Interleaving audio callback 
  38:../../Documents/Daisy/DaisyExamples/libdaisy//src/hid/audio.h ****    * Non-Interleaving audio callbacks in daisy will be of this type
  39:../../Documents/Daisy/DaisyExamples/libdaisy//src/hid/audio.h ****   */
  40:../../Documents/Daisy/DaisyExamples/libdaisy//src/hid/audio.h ****     typedef void (*AudioCallback)(InputBuffer  in,
  41:../../Documents/Daisy/DaisyExamples/libdaisy//src/hid/audio.h ****                                   OutputBuffer out,
  42:../../Documents/Daisy/DaisyExamples/libdaisy//src/hid/audio.h ****                                   size_t       size);
  43:../../Documents/Daisy/DaisyExamples/libdaisy//src/hid/audio.h **** 
  44:../../Documents/Daisy/DaisyExamples/libdaisy//src/hid/audio.h ****     /** Interleaving Input buffer
  45:../../Documents/Daisy/DaisyExamples/libdaisy//src/hid/audio.h ****      ** audio is prepared as { L0, R0, L1, R1, . . . LN, RN }]
  46:../../Documents/Daisy/DaisyExamples/libdaisy//src/hid/audio.h ****      ** this is const, as the user shouldn't modify it
  47:../../Documents/Daisy/DaisyExamples/libdaisy//src/hid/audio.h ****     */
  48:../../Documents/Daisy/DaisyExamples/libdaisy//src/hid/audio.h ****     typedef const float* InterleavingInputBuffer;
  49:../../Documents/Daisy/DaisyExamples/libdaisy//src/hid/audio.h **** 
  50:../../Documents/Daisy/DaisyExamples/libdaisy//src/hid/audio.h ****     /** Interleaving Output buffer 
  51:../../Documents/Daisy/DaisyExamples/libdaisy//src/hid/audio.h ****      ** audio is prepared as { L0, R0, L1, R1, . . . LN, RN }
  52:../../Documents/Daisy/DaisyExamples/libdaisy//src/hid/audio.h ****     */
  53:../../Documents/Daisy/DaisyExamples/libdaisy//src/hid/audio.h ****     typedef float* InterleavingOutputBuffer;
  54:../../Documents/Daisy/DaisyExamples/libdaisy//src/hid/audio.h **** 
  55:../../Documents/Daisy/DaisyExamples/libdaisy//src/hid/audio.h ****     /** Interleaving Audio Callback 
  56:../../Documents/Daisy/DaisyExamples/libdaisy//src/hid/audio.h ****    * Interleaving audio callbacks in daisy must be of this type
  57:../../Documents/Daisy/DaisyExamples/libdaisy//src/hid/audio.h ****   */
  58:../../Documents/Daisy/DaisyExamples/libdaisy//src/hid/audio.h ****     typedef void (*InterleavingAudioCallback)(InterleavingInputBuffer  in,
  59:../../Documents/Daisy/DaisyExamples/libdaisy//src/hid/audio.h ****                                               InterleavingOutputBuffer out,
  60:../../Documents/Daisy/DaisyExamples/libdaisy//src/hid/audio.h ****                                               size_t                   size);
  61:../../Documents/Daisy/DaisyExamples/libdaisy//src/hid/audio.h **** 
ARM GAS  /var/folders/j4/zsgv5hks61j070b3g480n1j40000gn/T//ccw8ESSH.s 			page 7


  62:../../Documents/Daisy/DaisyExamples/libdaisy//src/hid/audio.h ****     AudioHandle() : pimpl_(nullptr) {}
  63:../../Documents/Daisy/DaisyExamples/libdaisy//src/hid/audio.h ****     ~AudioHandle() {}
  56              		.loc 5 63 5 is_stmt 1 view .LVU7
  57              		.loc 5 63 5 is_stmt 0 view .LVU8
  58              	.LBE90:
  59              		.loc 1 22 19 view .LVU9
  60 0000 7047     		bx	lr
  61              		.cfi_endproc
  62              	.LFE2040:
  64              		.weak	_ZN5daisy9DaisySeedD1Ev
  65              		.thumb_set _ZN5daisy9DaisySeedD1Ev,_ZN5daisy9DaisySeedD2Ev
  66 0002 00BF     		.section	.text._ZN7daisysp10OscillatorD2Ev,"axG",%progbits,_ZN7daisysp10OscillatorD5Ev,comdat
  67              		.align	1
  68              		.p2align 2,,3
  69              		.weak	_ZN7daisysp10OscillatorD2Ev
  70              		.syntax unified
  71              		.thumb
  72              		.thumb_func
  74              	_ZN7daisysp10OscillatorD2Ev:
  75              	.LVL1:
  76              	.LFB3730:
  77              		.file 6 "../../Documents/Daisy/DaisyExamples/daisysp//Source/Synthesis/oscillator.h"
   1:../../Documents/Daisy/DaisyExamples/daisysp//Source/Synthesis/oscillator.h **** #pragma once
   2:../../Documents/Daisy/DaisyExamples/daisysp//Source/Synthesis/oscillator.h **** #ifndef DSY_OSCILLATOR_H
   3:../../Documents/Daisy/DaisyExamples/daisysp//Source/Synthesis/oscillator.h **** #define DSY_OSCILLATOR_H
   4:../../Documents/Daisy/DaisyExamples/daisysp//Source/Synthesis/oscillator.h **** #include <stdint.h>
   5:../../Documents/Daisy/DaisyExamples/daisysp//Source/Synthesis/oscillator.h **** #include "Utility/dsp.h"
   6:../../Documents/Daisy/DaisyExamples/daisysp//Source/Synthesis/oscillator.h **** #ifdef __cplusplus
   7:../../Documents/Daisy/DaisyExamples/daisysp//Source/Synthesis/oscillator.h **** 
   8:../../Documents/Daisy/DaisyExamples/daisysp//Source/Synthesis/oscillator.h **** namespace daisysp
   9:../../Documents/Daisy/DaisyExamples/daisysp//Source/Synthesis/oscillator.h **** {
  10:../../Documents/Daisy/DaisyExamples/daisysp//Source/Synthesis/oscillator.h **** /** Synthesis of several waveforms, including polyBLEP bandlimited waveforms.
  11:../../Documents/Daisy/DaisyExamples/daisysp//Source/Synthesis/oscillator.h **** */
  12:../../Documents/Daisy/DaisyExamples/daisysp//Source/Synthesis/oscillator.h **** class Oscillator
  13:../../Documents/Daisy/DaisyExamples/daisysp//Source/Synthesis/oscillator.h **** {
  14:../../Documents/Daisy/DaisyExamples/daisysp//Source/Synthesis/oscillator.h ****   public:
  15:../../Documents/Daisy/DaisyExamples/daisysp//Source/Synthesis/oscillator.h ****     Oscillator() {}
  16:../../Documents/Daisy/DaisyExamples/daisysp//Source/Synthesis/oscillator.h ****     ~Oscillator() {}
  78              		.loc 6 16 5 is_stmt 1 view -0
  79              		.cfi_startproc
  80              		@ args = 0, pretend = 0, frame = 0
  81              		@ frame_needed = 0, uses_anonymous_args = 0
  82              		@ link register save eliminated.
  83              		.loc 6 16 20 is_stmt 0 view .LVU11
  84 0000 7047     		bx	lr
  85              		.cfi_endproc
  86              	.LFE3730:
  88              		.weak	_ZN7daisysp10OscillatorD1Ev
  89              		.thumb_set _ZN7daisysp10OscillatorD1Ev,_ZN7daisysp10OscillatorD2Ev
  90 0002 00BF     		.section	.text._Z14audio_callbackPKPKfPPfj,"ax",%progbits
  91              		.align	1
  92              		.p2align 2,,3
  93              		.global	_Z14audio_callbackPKPKfPPfj
  94              		.syntax unified
  95              		.thumb
  96              		.thumb_func
  98              	_Z14audio_callbackPKPKfPPfj:
ARM GAS  /var/folders/j4/zsgv5hks61j070b3g480n1j40000gn/T//ccw8ESSH.s 			page 8


  99              	.LVL2:
 100              	.LFB4268:
 101              		.file 7 "DaisyDrone.cpp"
   1:DaisyDrone.cpp **** #include "daisy_seed.h"
   2:DaisyDrone.cpp **** #include "daisysp.h"
   3:DaisyDrone.cpp **** 
   4:DaisyDrone.cpp **** using namespace daisy;
   5:DaisyDrone.cpp **** using namespace daisysp;
   6:DaisyDrone.cpp **** 
   7:DaisyDrone.cpp **** DaisySeed hw;
   8:DaisyDrone.cpp **** 
   9:DaisyDrone.cpp **** Oscillator osc;
  10:DaisyDrone.cpp **** 
  11:DaisyDrone.cpp **** void audio_callback(AudioHandle::InputBuffer in, AudioHandle::OutputBuffer out, size_t size)
  12:DaisyDrone.cpp **** {
 102              		.loc 7 12 1 is_stmt 1 view -0
 103              		.cfi_startproc
 104              		@ args = 0, pretend = 0, frame = 0
 105              		@ frame_needed = 0, uses_anonymous_args = 0
  13:DaisyDrone.cpp **** 	for (size_t i = 0; i < size; i++)
 106              		.loc 7 13 2 view .LVU13
 107              	.LBB91:
 108              		.loc 7 13 23 view .LVU14
 109 0000 A2B1     		cbz	r2, .L12
 110              	.LBE91:
  12:DaisyDrone.cpp **** 	for (size_t i = 0; i < size; i++)
 111              		.loc 7 12 1 is_stmt 0 view .LVU15
 112 0002 70B5     		push	{r4, r5, r6, lr}
 113              		.cfi_def_cfa_offset 16
 114              		.cfi_offset 4, -16
 115              		.cfi_offset 5, -12
 116              		.cfi_offset 6, -8
 117              		.cfi_offset 14, -4
 118 0004 0D46     		mov	r5, r1
 119 0006 1646     		mov	r6, r2
 120              	.LBB95:
 121              		.loc 7 13 14 view .LVU16
 122 0008 0024     		movs	r4, #0
 123              	.LVL3:
 124              	.L6:
 125              	.LBB92:
  14:DaisyDrone.cpp **** 	{
  15:DaisyDrone.cpp **** 		const float osc_out = osc.Process();
 126              		.loc 7 15 3 is_stmt 1 discriminator 2 view .LVU17
 127              		.loc 7 15 36 is_stmt 0 discriminator 2 view .LVU18
 128 000a 0948     		ldr	r0, .L15
 129 000c FFF7FEFF 		bl	_ZN7daisysp10Oscillator7ProcessEv
 130              	.LVL4:
  16:DaisyDrone.cpp **** 
  17:DaisyDrone.cpp **** 		out[0][i] = osc_out;
  18:DaisyDrone.cpp **** 		out[1][i] = osc_out;
 131              		.loc 7 18 13 discriminator 2 view .LVU19
 132 0010 D5E90003 		ldrd	r0, r3, [r5]
 133              	.LVL5:
  17:DaisyDrone.cpp **** 		out[1][i] = osc_out;
 134              		.loc 7 17 3 is_stmt 1 discriminator 2 view .LVU20
  17:DaisyDrone.cpp **** 		out[1][i] = osc_out;
ARM GAS  /var/folders/j4/zsgv5hks61j070b3g480n1j40000gn/T//ccw8ESSH.s 			page 9


 135              		.loc 7 17 13 is_stmt 0 discriminator 2 view .LVU21
 136 0014 00EB8400 		add	r0, r0, r4, lsl #2
 137              		.loc 7 18 13 discriminator 2 view .LVU22
 138 0018 03EB8403 		add	r3, r3, r4, lsl #2
 139              	.LBE92:
  13:DaisyDrone.cpp **** 	{
 140              		.loc 7 13 2 discriminator 2 view .LVU23
 141 001c 0134     		adds	r4, r4, #1
 142              	.LVL6:
 143              	.LBB93:
  17:DaisyDrone.cpp **** 		out[1][i] = osc_out;
 144              		.loc 7 17 13 discriminator 2 view .LVU24
 145 001e 80ED000A 		vstr.32	s0, [r0]
 146              		.loc 7 18 3 is_stmt 1 discriminator 2 view .LVU25
 147              	.LBE93:
  13:DaisyDrone.cpp **** 	{
 148              		.loc 7 13 23 is_stmt 0 discriminator 2 view .LVU26
 149 0022 A642     		cmp	r6, r4
 150              	.LBB94:
 151              		.loc 7 18 13 discriminator 2 view .LVU27
 152 0024 83ED000A 		vstr.32	s0, [r3]
 153              	.LBE94:
  13:DaisyDrone.cpp **** 	{
 154              		.loc 7 13 2 is_stmt 1 discriminator 2 view .LVU28
 155              	.LVL7:
  13:DaisyDrone.cpp **** 	{
 156              		.loc 7 13 23 discriminator 2 view .LVU29
 157 0028 EFD1     		bne	.L6
 158              	.LBE95:
  19:DaisyDrone.cpp **** 	}
  20:DaisyDrone.cpp **** }
 159              		.loc 7 20 1 is_stmt 0 view .LVU30
 160 002a 70BD     		pop	{r4, r5, r6, pc}
 161              	.LVL8:
 162              	.L12:
 163              		.cfi_def_cfa_offset 0
 164              		.cfi_restore 4
 165              		.cfi_restore 5
 166              		.cfi_restore 6
 167              		.cfi_restore 14
 168              		.loc 7 20 1 view .LVU31
 169 002c 7047     		bx	lr
 170              	.L16:
 171 002e 00BF     		.align	2
 172              	.L15:
 173 0030 00000000 		.word	.LANCHOR0
 174              		.cfi_endproc
 175              	.LFE4268:
 177              		.section	.rodata.main.str1.4,"aMS",%progbits,1
 178              		.align	2
 179              	.LC0:
 180 0000 53746172 		.ascii	"Startup complete\000"
 180      74757020 
 180      636F6D70 
 180      6C657465 
 180      00
 181 0011 000000   		.align	2
ARM GAS  /var/folders/j4/zsgv5hks61j070b3g480n1j40000gn/T//ccw8ESSH.s 			page 10


 182              	.LC1:
 183 0014 706F7420 		.ascii	"pot 1 %d\000"
 183      31202564 
 183      00
 184 001d 000000   		.align	2
 185              	.LC2:
 186 0020 706F7420 		.ascii	"pot 2 %d\000"
 186      32202564 
 186      00
 187              		.section	.text.startup.main,"ax",%progbits
 188              		.align	1
 189              		.p2align 2,,3
 190              		.global	main
 191              		.syntax unified
 192              		.thumb
 193              		.thumb_func
 195              	main:
 196              	.LFB4269:
  21:DaisyDrone.cpp **** 
  22:DaisyDrone.cpp **** int main(void)
  23:DaisyDrone.cpp **** {
 197              		.loc 7 23 1 is_stmt 1 view -0
 198              		.cfi_startproc
 199              		@ args = 0, pretend = 0, frame = 80
 200              		@ frame_needed = 0, uses_anonymous_args = 0
  24:DaisyDrone.cpp **** 	hw.Configure();
 201              		.loc 7 24 2 view .LVU33
  23:DaisyDrone.cpp **** 	hw.Configure();
 202              		.loc 7 23 1 is_stmt 0 view .LVU34
 203 0000 10B5     		push	{r4, lr}
 204              		.cfi_def_cfa_offset 8
 205              		.cfi_offset 4, -8
 206              		.cfi_offset 14, -4
 207              		.loc 7 24 14 view .LVU35
 208 0002 5348     		ldr	r0, .L20
 209              	.LBB119:
 210              	.LBB120:
  17:../../Documents/Daisy/DaisyExamples/daisysp//Source/Synthesis/oscillator.h ****     /** Choices for output waveforms, POLYBLEP are appropriately labeled. Others are naive forms.
  18:../../Documents/Daisy/DaisyExamples/daisysp//Source/Synthesis/oscillator.h ****     */
  19:../../Documents/Daisy/DaisyExamples/daisysp//Source/Synthesis/oscillator.h ****     enum
  20:../../Documents/Daisy/DaisyExamples/daisysp//Source/Synthesis/oscillator.h ****     {
  21:../../Documents/Daisy/DaisyExamples/daisysp//Source/Synthesis/oscillator.h ****         WAVE_SIN,
  22:../../Documents/Daisy/DaisyExamples/daisysp//Source/Synthesis/oscillator.h ****         WAVE_TRI,
  23:../../Documents/Daisy/DaisyExamples/daisysp//Source/Synthesis/oscillator.h ****         WAVE_SAW,
  24:../../Documents/Daisy/DaisyExamples/daisysp//Source/Synthesis/oscillator.h ****         WAVE_RAMP,
  25:../../Documents/Daisy/DaisyExamples/daisysp//Source/Synthesis/oscillator.h ****         WAVE_SQUARE,
  26:../../Documents/Daisy/DaisyExamples/daisysp//Source/Synthesis/oscillator.h ****         WAVE_POLYBLEP_TRI,
  27:../../Documents/Daisy/DaisyExamples/daisysp//Source/Synthesis/oscillator.h ****         WAVE_POLYBLEP_SAW,
  28:../../Documents/Daisy/DaisyExamples/daisysp//Source/Synthesis/oscillator.h ****         WAVE_POLYBLEP_SQUARE,
  29:../../Documents/Daisy/DaisyExamples/daisysp//Source/Synthesis/oscillator.h ****         WAVE_LAST,
  30:../../Documents/Daisy/DaisyExamples/daisysp//Source/Synthesis/oscillator.h ****     };
  31:../../Documents/Daisy/DaisyExamples/daisysp//Source/Synthesis/oscillator.h **** 
  32:../../Documents/Daisy/DaisyExamples/daisysp//Source/Synthesis/oscillator.h **** 
  33:../../Documents/Daisy/DaisyExamples/daisysp//Source/Synthesis/oscillator.h ****     /** Initializes the Oscillator
  34:../../Documents/Daisy/DaisyExamples/daisysp//Source/Synthesis/oscillator.h **** 
  35:../../Documents/Daisy/DaisyExamples/daisysp//Source/Synthesis/oscillator.h ****         \param sample_rate - sample rate of the audio engine being run, and the frequency that the 
  36:../../Documents/Daisy/DaisyExamples/daisysp//Source/Synthesis/oscillator.h **** 
ARM GAS  /var/folders/j4/zsgv5hks61j070b3g480n1j40000gn/T//ccw8ESSH.s 			page 11


  37:../../Documents/Daisy/DaisyExamples/daisysp//Source/Synthesis/oscillator.h ****         Defaults:
  38:../../Documents/Daisy/DaisyExamples/daisysp//Source/Synthesis/oscillator.h ****         - freq_ = 100 Hz
  39:../../Documents/Daisy/DaisyExamples/daisysp//Source/Synthesis/oscillator.h ****         - amp_ = 0.5
  40:../../Documents/Daisy/DaisyExamples/daisysp//Source/Synthesis/oscillator.h ****         - waveform_ = sine wave.
  41:../../Documents/Daisy/DaisyExamples/daisysp//Source/Synthesis/oscillator.h ****     */
  42:../../Documents/Daisy/DaisyExamples/daisysp//Source/Synthesis/oscillator.h ****     void Init(float sample_rate)
  43:../../Documents/Daisy/DaisyExamples/daisysp//Source/Synthesis/oscillator.h ****     {
  44:../../Documents/Daisy/DaisyExamples/daisysp//Source/Synthesis/oscillator.h ****         sr_        = sample_rate;
 211              		.loc 6 44 20 view .LVU36
 212 0004 534C     		ldr	r4, .L20+4
 213              	.LBE120:
 214              	.LBE119:
  23:DaisyDrone.cpp **** 	hw.Configure();
 215              		.loc 7 23 1 view .LVU37
 216 0006 2DED048B 		vpush.64	{d8, d9}
 217              		.cfi_def_cfa_offset 24
 218              		.cfi_offset 80, -24
 219              		.cfi_offset 81, -20
 220              		.cfi_offset 82, -16
 221              		.cfi_offset 83, -12
 222 000a 94B0     		sub	sp, sp, #80
 223              		.cfi_def_cfa_offset 104
 224              	.LBB125:
 225              	.LBB121:
  45:../../Documents/Daisy/DaisyExamples/daisysp//Source/Synthesis/oscillator.h ****         sr_recip_  = 1.0f / sample_rate;
  46:../../Documents/Daisy/DaisyExamples/daisysp//Source/Synthesis/oscillator.h ****         freq_      = 100.0f;
  47:../../Documents/Daisy/DaisyExamples/daisysp//Source/Synthesis/oscillator.h ****         amp_       = 0.5f;
 226              		.loc 6 47 20 view .LVU38
 227 000c B6EE008A 		vmov.f32	s16, #5.0e-1
 228              	.LBE121:
 229              	.LBE125:
 230              		.loc 7 24 14 view .LVU39
 231 0010 FFF7FEFF 		bl	_ZN5daisy9DaisySeed9ConfigureEv
 232              	.LVL9:
  25:DaisyDrone.cpp **** 	hw.Init();
 233              		.loc 7 25 2 is_stmt 1 view .LVU40
 234              		.loc 7 25 9 is_stmt 0 view .LVU41
 235 0014 0021     		movs	r1, #0
 236 0016 4E48     		ldr	r0, .L20
 237 0018 FFF7FEFF 		bl	_ZN5daisy9DaisySeed4InitEb
 238              	.LVL10:
  26:DaisyDrone.cpp **** 
  27:DaisyDrone.cpp **** 	hw.StartLog(false/*block until serial connection opened*/);
 239              		.loc 7 27 2 is_stmt 1 view .LVU42
 240              	.LBB126:
 241              	.LBI126:
  23:../../Documents/Daisy/DaisyExamples/libdaisy//src/daisy_seed.h **** 
  24:../../Documents/Daisy/DaisyExamples/libdaisy//src/daisy_seed.h ****     /** 
  25:../../Documents/Daisy/DaisyExamples/libdaisy//src/daisy_seed.h ****     Configures the settings for all internal peripherals,
  26:../../Documents/Daisy/DaisyExamples/libdaisy//src/daisy_seed.h ****     but does not initialize them.
  27:../../Documents/Daisy/DaisyExamples/libdaisy//src/daisy_seed.h ****     This allows for modification of the configuration
  28:../../Documents/Daisy/DaisyExamples/libdaisy//src/daisy_seed.h ****     handles prior to initialization.
  29:../../Documents/Daisy/DaisyExamples/libdaisy//src/daisy_seed.h ****     */
  30:../../Documents/Daisy/DaisyExamples/libdaisy//src/daisy_seed.h **** 
  31:../../Documents/Daisy/DaisyExamples/libdaisy//src/daisy_seed.h ****     //Defaults listed below:
  32:../../Documents/Daisy/DaisyExamples/libdaisy//src/daisy_seed.h ****     //TODO: Add defaults
  33:../../Documents/Daisy/DaisyExamples/libdaisy//src/daisy_seed.h **** 
ARM GAS  /var/folders/j4/zsgv5hks61j070b3g480n1j40000gn/T//ccw8ESSH.s 			page 12


  34:../../Documents/Daisy/DaisyExamples/libdaisy//src/daisy_seed.h ****     /** & */
  35:../../Documents/Daisy/DaisyExamples/libdaisy//src/daisy_seed.h ****     void Configure();
  36:../../Documents/Daisy/DaisyExamples/libdaisy//src/daisy_seed.h **** 
  37:../../Documents/Daisy/DaisyExamples/libdaisy//src/daisy_seed.h ****     /** 
  38:../../Documents/Daisy/DaisyExamples/libdaisy//src/daisy_seed.h ****     Initializes the Daisy Seed and the following peripherals:
  39:../../Documents/Daisy/DaisyExamples/libdaisy//src/daisy_seed.h ****     SDRAM, QSPI, 24-bit 48kHz Audio via AK4556, Internal USB,
  40:../../Documents/Daisy/DaisyExamples/libdaisy//src/daisy_seed.h ****     as well as the built-in LED and Testpoint.
  41:../../Documents/Daisy/DaisyExamples/libdaisy//src/daisy_seed.h **** 
  42:../../Documents/Daisy/DaisyExamples/libdaisy//src/daisy_seed.h ****     ADCs, DACs, and other special peripherals (such as I2C, SPI, etc.)
  43:../../Documents/Daisy/DaisyExamples/libdaisy//src/daisy_seed.h ****     can be initialized using their specific initializers within libdaisy
  44:../../Documents/Daisy/DaisyExamples/libdaisy//src/daisy_seed.h ****     for a specific application.
  45:../../Documents/Daisy/DaisyExamples/libdaisy//src/daisy_seed.h ****     */
  46:../../Documents/Daisy/DaisyExamples/libdaisy//src/daisy_seed.h ****     void Init(bool boost = false);
  47:../../Documents/Daisy/DaisyExamples/libdaisy//src/daisy_seed.h **** 
  48:../../Documents/Daisy/DaisyExamples/libdaisy//src/daisy_seed.h ****     /** 
  49:../../Documents/Daisy/DaisyExamples/libdaisy//src/daisy_seed.h ****     Deinitializes all peripherals automatically handled by `Init`.
  50:../../Documents/Daisy/DaisyExamples/libdaisy//src/daisy_seed.h ****     */
  51:../../Documents/Daisy/DaisyExamples/libdaisy//src/daisy_seed.h ****     void DeInit();
  52:../../Documents/Daisy/DaisyExamples/libdaisy//src/daisy_seed.h **** 
  53:../../Documents/Daisy/DaisyExamples/libdaisy//src/daisy_seed.h ****     /** 
  54:../../Documents/Daisy/DaisyExamples/libdaisy//src/daisy_seed.h ****     Wait some ms before going on.
  55:../../Documents/Daisy/DaisyExamples/libdaisy//src/daisy_seed.h ****     \param del Delay time in ms.
  56:../../Documents/Daisy/DaisyExamples/libdaisy//src/daisy_seed.h ****     */
  57:../../Documents/Daisy/DaisyExamples/libdaisy//src/daisy_seed.h ****     void DelayMs(size_t del);
  58:../../Documents/Daisy/DaisyExamples/libdaisy//src/daisy_seed.h **** 
  59:../../Documents/Daisy/DaisyExamples/libdaisy//src/daisy_seed.h ****     /** 
  60:../../Documents/Daisy/DaisyExamples/libdaisy//src/daisy_seed.h ****     Returns the gpio_pin corresponding to the index 0-31.
  61:../../Documents/Daisy/DaisyExamples/libdaisy//src/daisy_seed.h ****     For the given GPIO on the Daisy Seed (labeled 1-32 in docs).
  62:../../Documents/Daisy/DaisyExamples/libdaisy//src/daisy_seed.h ****     */
  63:../../Documents/Daisy/DaisyExamples/libdaisy//src/daisy_seed.h ****     static dsy_gpio_pin GetPin(uint8_t pin_idx);
  64:../../Documents/Daisy/DaisyExamples/libdaisy//src/daisy_seed.h **** 
  65:../../Documents/Daisy/DaisyExamples/libdaisy//src/daisy_seed.h ****     /** Begins the audio for the seeds builtin audio.
  66:../../Documents/Daisy/DaisyExamples/libdaisy//src/daisy_seed.h ****     the specified callback will get called whenever
  67:../../Documents/Daisy/DaisyExamples/libdaisy//src/daisy_seed.h ****     new data is ready to be prepared.
  68:../../Documents/Daisy/DaisyExamples/libdaisy//src/daisy_seed.h ****     */
  69:../../Documents/Daisy/DaisyExamples/libdaisy//src/daisy_seed.h ****     void StartAudio(AudioHandle::InterleavingAudioCallback cb);
  70:../../Documents/Daisy/DaisyExamples/libdaisy//src/daisy_seed.h **** 
  71:../../Documents/Daisy/DaisyExamples/libdaisy//src/daisy_seed.h ****     /** Begins the audio for the seeds builtin audio.
  72:../../Documents/Daisy/DaisyExamples/libdaisy//src/daisy_seed.h ****     the specified callback will get called whenever
  73:../../Documents/Daisy/DaisyExamples/libdaisy//src/daisy_seed.h ****     new data is ready to be prepared.
  74:../../Documents/Daisy/DaisyExamples/libdaisy//src/daisy_seed.h ****     This will use the newer non-interleaved callback.
  75:../../Documents/Daisy/DaisyExamples/libdaisy//src/daisy_seed.h ****     */
  76:../../Documents/Daisy/DaisyExamples/libdaisy//src/daisy_seed.h ****     void StartAudio(AudioHandle::AudioCallback cb);
  77:../../Documents/Daisy/DaisyExamples/libdaisy//src/daisy_seed.h **** 
  78:../../Documents/Daisy/DaisyExamples/libdaisy//src/daisy_seed.h ****     /** Changes to a new interleaved callback
  79:../../Documents/Daisy/DaisyExamples/libdaisy//src/daisy_seed.h ****      */
  80:../../Documents/Daisy/DaisyExamples/libdaisy//src/daisy_seed.h ****     void ChangeAudioCallback(AudioHandle::InterleavingAudioCallback cb);
  81:../../Documents/Daisy/DaisyExamples/libdaisy//src/daisy_seed.h **** 
  82:../../Documents/Daisy/DaisyExamples/libdaisy//src/daisy_seed.h ****     /** Changes to a new multichannel callback
  83:../../Documents/Daisy/DaisyExamples/libdaisy//src/daisy_seed.h ****      */
  84:../../Documents/Daisy/DaisyExamples/libdaisy//src/daisy_seed.h ****     void ChangeAudioCallback(AudioHandle::AudioCallback cb);
  85:../../Documents/Daisy/DaisyExamples/libdaisy//src/daisy_seed.h **** 
  86:../../Documents/Daisy/DaisyExamples/libdaisy//src/daisy_seed.h ****     /** Stops the audio if it is running. */
  87:../../Documents/Daisy/DaisyExamples/libdaisy//src/daisy_seed.h ****     void StopAudio();
  88:../../Documents/Daisy/DaisyExamples/libdaisy//src/daisy_seed.h **** 
  89:../../Documents/Daisy/DaisyExamples/libdaisy//src/daisy_seed.h ****     /** Updates the Audio Sample Rate, and reinitializes.
  90:../../Documents/Daisy/DaisyExamples/libdaisy//src/daisy_seed.h ****      ** Audio must be stopped for this to work.
ARM GAS  /var/folders/j4/zsgv5hks61j070b3g480n1j40000gn/T//ccw8ESSH.s 			page 13


  91:../../Documents/Daisy/DaisyExamples/libdaisy//src/daisy_seed.h ****      */
  92:../../Documents/Daisy/DaisyExamples/libdaisy//src/daisy_seed.h ****     void SetAudioSampleRate(SaiHandle::Config::SampleRate samplerate);
  93:../../Documents/Daisy/DaisyExamples/libdaisy//src/daisy_seed.h **** 
  94:../../Documents/Daisy/DaisyExamples/libdaisy//src/daisy_seed.h ****     /** Returns the audio sample rate in Hz as a floating point number.
  95:../../Documents/Daisy/DaisyExamples/libdaisy//src/daisy_seed.h ****      */
  96:../../Documents/Daisy/DaisyExamples/libdaisy//src/daisy_seed.h ****     float AudioSampleRate();
  97:../../Documents/Daisy/DaisyExamples/libdaisy//src/daisy_seed.h **** 
  98:../../Documents/Daisy/DaisyExamples/libdaisy//src/daisy_seed.h ****     /** Sets the number of samples processed per channel by the audio callback.
  99:../../Documents/Daisy/DaisyExamples/libdaisy//src/daisy_seed.h ****      */
 100:../../Documents/Daisy/DaisyExamples/libdaisy//src/daisy_seed.h ****     void SetAudioBlockSize(size_t blocksize);
 101:../../Documents/Daisy/DaisyExamples/libdaisy//src/daisy_seed.h **** 
 102:../../Documents/Daisy/DaisyExamples/libdaisy//src/daisy_seed.h ****     /** Returns the number of samples per channel in a block of audio. */
 103:../../Documents/Daisy/DaisyExamples/libdaisy//src/daisy_seed.h ****     size_t AudioBlockSize();
 104:../../Documents/Daisy/DaisyExamples/libdaisy//src/daisy_seed.h **** 
 105:../../Documents/Daisy/DaisyExamples/libdaisy//src/daisy_seed.h ****     /** Returns the rate in Hz that the Audio callback is called */
 106:../../Documents/Daisy/DaisyExamples/libdaisy//src/daisy_seed.h ****     float AudioCallbackRate() const;
 107:../../Documents/Daisy/DaisyExamples/libdaisy//src/daisy_seed.h **** 
 108:../../Documents/Daisy/DaisyExamples/libdaisy//src/daisy_seed.h ****     /** Sets the state of the built in LED
 109:../../Documents/Daisy/DaisyExamples/libdaisy//src/daisy_seed.h ****      */
 110:../../Documents/Daisy/DaisyExamples/libdaisy//src/daisy_seed.h ****     void SetLed(bool state);
 111:../../Documents/Daisy/DaisyExamples/libdaisy//src/daisy_seed.h **** 
 112:../../Documents/Daisy/DaisyExamples/libdaisy//src/daisy_seed.h ****     /** Sets the state of the test point near pin 10
 113:../../Documents/Daisy/DaisyExamples/libdaisy//src/daisy_seed.h ****      */
 114:../../Documents/Daisy/DaisyExamples/libdaisy//src/daisy_seed.h ****     void SetTestPoint(bool state);
 115:../../Documents/Daisy/DaisyExamples/libdaisy//src/daisy_seed.h **** 
 116:../../Documents/Daisy/DaisyExamples/libdaisy//src/daisy_seed.h ****     /** Print formatted debug log message
 117:../../Documents/Daisy/DaisyExamples/libdaisy//src/daisy_seed.h ****      */
 118:../../Documents/Daisy/DaisyExamples/libdaisy//src/daisy_seed.h ****     template <typename... VA>
 119:../../Documents/Daisy/DaisyExamples/libdaisy//src/daisy_seed.h ****     static void Print(const char* format, VA... va)
 120:../../Documents/Daisy/DaisyExamples/libdaisy//src/daisy_seed.h ****     {
 121:../../Documents/Daisy/DaisyExamples/libdaisy//src/daisy_seed.h ****         Log::Print(format, va...);
 122:../../Documents/Daisy/DaisyExamples/libdaisy//src/daisy_seed.h ****     }
 123:../../Documents/Daisy/DaisyExamples/libdaisy//src/daisy_seed.h **** 
 124:../../Documents/Daisy/DaisyExamples/libdaisy//src/daisy_seed.h ****     /** Print formatted debug log message with automatic line termination
 125:../../Documents/Daisy/DaisyExamples/libdaisy//src/daisy_seed.h ****     */
 126:../../Documents/Daisy/DaisyExamples/libdaisy//src/daisy_seed.h ****     template <typename... VA>
 127:../../Documents/Daisy/DaisyExamples/libdaisy//src/daisy_seed.h ****     static void PrintLine(const char* format, VA... va)
 128:../../Documents/Daisy/DaisyExamples/libdaisy//src/daisy_seed.h ****     {
 129:../../Documents/Daisy/DaisyExamples/libdaisy//src/daisy_seed.h ****         Log::PrintLine(format, va...);
 130:../../Documents/Daisy/DaisyExamples/libdaisy//src/daisy_seed.h ****     }
 131:../../Documents/Daisy/DaisyExamples/libdaisy//src/daisy_seed.h **** 
 132:../../Documents/Daisy/DaisyExamples/libdaisy//src/daisy_seed.h ****     /** Start the logging session. Optionally wait for terminal connection before proceeding.
 133:../../Documents/Daisy/DaisyExamples/libdaisy//src/daisy_seed.h ****     */
 134:../../Documents/Daisy/DaisyExamples/libdaisy//src/daisy_seed.h ****     static void StartLog(bool wait_for_pc = false)
 242              		.loc 1 134 17 view .LVU43
 243              	.LBB127:
 135:../../Documents/Daisy/DaisyExamples/libdaisy//src/daisy_seed.h ****     {
 136:../../Documents/Daisy/DaisyExamples/libdaisy//src/daisy_seed.h ****         Log::StartLog(wait_for_pc);
 244              		.loc 1 136 9 view .LVU44
 245              		.loc 1 136 22 is_stmt 0 view .LVU45
 246 001c 0020     		movs	r0, #0
 247 001e FFF7FEFF 		bl	_ZN5daisy6LoggerILNS_17LoggerDestinationE1EE8StartLogEb
 248              	.LVL11:
 249              		.loc 1 136 22 view .LVU46
 250              	.LBE127:
 251              	.LBE126:
  28:DaisyDrone.cpp **** 
ARM GAS  /var/folders/j4/zsgv5hks61j070b3g480n1j40000gn/T//ccw8ESSH.s 			page 14


  29:DaisyDrone.cpp ****     Led led1;
 252              		.loc 7 29 5 is_stmt 1 view .LVU47
 253              	.LBB128:
 254              	.LBI128:
 255              		.file 8 "../../Documents/Daisy/DaisyExamples/libdaisy//src/hid/led.h"
   1:../../Documents/Daisy/DaisyExamples/libdaisy//src/hid/led.h **** 
   2:../../Documents/Daisy/DaisyExamples/libdaisy//src/hid/led.h **** #pragma once
   3:../../Documents/Daisy/DaisyExamples/libdaisy//src/hid/led.h **** #ifndef DSY_LED_H
   4:../../Documents/Daisy/DaisyExamples/libdaisy//src/hid/led.h **** #define DSY_LED_H
   5:../../Documents/Daisy/DaisyExamples/libdaisy//src/hid/led.h **** #include "daisy_core.h"
   6:../../Documents/Daisy/DaisyExamples/libdaisy//src/hid/led.h **** #include "per/gpio.h"
   7:../../Documents/Daisy/DaisyExamples/libdaisy//src/hid/led.h **** 
   8:../../Documents/Daisy/DaisyExamples/libdaisy//src/hid/led.h **** /* TODO - Get this set up to work with the dev_leddriver stuff as well
   9:../../Documents/Daisy/DaisyExamples/libdaisy//src/hid/led.h **** - Setup Hardware PWM for pins that have it
  10:../../Documents/Daisy/DaisyExamples/libdaisy//src/hid/led.h **** */
  11:../../Documents/Daisy/DaisyExamples/libdaisy//src/hid/led.h **** 
  12:../../Documents/Daisy/DaisyExamples/libdaisy//src/hid/led.h **** namespace daisy
  13:../../Documents/Daisy/DaisyExamples/libdaisy//src/hid/led.h **** {
  14:../../Documents/Daisy/DaisyExamples/libdaisy//src/hid/led.h **** /**
  15:../../Documents/Daisy/DaisyExamples/libdaisy//src/hid/led.h ****     @brief LED Class providing simple Software PWM ability, etc \n 
  16:../../Documents/Daisy/DaisyExamples/libdaisy//src/hid/led.h ****     Eventually this will work with hardware PWM, and external LED Driver devices as well.
  17:../../Documents/Daisy/DaisyExamples/libdaisy//src/hid/led.h ****     @author shensley
  18:../../Documents/Daisy/DaisyExamples/libdaisy//src/hid/led.h ****     @date March 2020
  19:../../Documents/Daisy/DaisyExamples/libdaisy//src/hid/led.h ****     @ingroup feedback
  20:../../Documents/Daisy/DaisyExamples/libdaisy//src/hid/led.h **** */
  21:../../Documents/Daisy/DaisyExamples/libdaisy//src/hid/led.h **** class Led
  22:../../Documents/Daisy/DaisyExamples/libdaisy//src/hid/led.h **** {
  23:../../Documents/Daisy/DaisyExamples/libdaisy//src/hid/led.h ****   public:
  24:../../Documents/Daisy/DaisyExamples/libdaisy//src/hid/led.h ****     Led() {}
 256              		.loc 8 24 5 view .LVU48
 257              		.loc 8 24 5 is_stmt 0 view .LVU49
 258              	.LBE128:
  30:DaisyDrone.cpp ****     //Initialize led1. We'll plug it into pin 28.
  31:DaisyDrone.cpp ****     //false here indicates the value is uninverted
  32:DaisyDrone.cpp ****     led1.Init(hw.GetPin(28), false);	
 259              		.loc 7 32 5 is_stmt 1 view .LVU50
 260              		.loc 7 32 14 is_stmt 0 view .LVU51
 261 0022 1C20     		movs	r0, #28
 262 0024 FFF7FEFF 		bl	_ZN5daisy9DaisySeed6GetPinEh
 263              	.LVL12:
 264 0028 ADF80400 		strh	r0, [sp, #4]	@ movhi
 265 002c 9FED4A0A 		vldr.32	s0, .L20+8
 266 0030 0022     		movs	r2, #0
 267 0032 0199     		ldr	r1, [sp, #4]
 268 0034 04A8     		add	r0, sp, #16
 269 0036 FFF7FEFF 		bl	_ZN5daisy3Led4InitE12dsy_gpio_pinbf
 270              	.LVL13:
  33:DaisyDrone.cpp **** 
  34:DaisyDrone.cpp **** 	// setup pots
  35:DaisyDrone.cpp ****     AdcChannelConfig adcConfig[2];
 271              		.loc 7 35 5 is_stmt 1 view .LVU52
  36:DaisyDrone.cpp ****     adcConfig[0].InitSingle(hw.GetPin(15));
 272              		.loc 7 36 5 view .LVU53
 273              		.loc 7 36 28 is_stmt 0 view .LVU54
 274 003a 0F20     		movs	r0, #15
 275 003c FFF7FEFF 		bl	_ZN5daisy9DaisySeed6GetPinEh
 276              	.LVL14:
ARM GAS  /var/folders/j4/zsgv5hks61j070b3g480n1j40000gn/T//ccw8ESSH.s 			page 15


 277 0040 0346     		mov	r3, r0	@ movhi
 278 0042 0BA8     		add	r0, sp, #44
 279 0044 ADF80830 		strh	r3, [sp, #8]	@ movhi
 280 0048 0299     		ldr	r1, [sp, #8]
 281 004a FFF7FEFF 		bl	_ZN5daisy16AdcChannelConfig10InitSingleE12dsy_gpio_pin
 282              	.LVL15:
  37:DaisyDrone.cpp **** 	adcConfig[1].InitSingle(hw.GetPin(16));
 283              		.loc 7 37 2 is_stmt 1 view .LVU55
 284              		.loc 7 37 25 is_stmt 0 view .LVU56
 285 004e 1020     		movs	r0, #16
 286 0050 FFF7FEFF 		bl	_ZN5daisy9DaisySeed6GetPinEh
 287              	.LVL16:
 288 0054 0346     		mov	r3, r0	@ movhi
 289 0056 0DF13D00 		add	r0, sp, #61
 290 005a ADF80C30 		strh	r3, [sp, #12]	@ movhi
 291 005e 0399     		ldr	r1, [sp, #12]
 292 0060 FFF7FEFF 		bl	_ZN5daisy16AdcChannelConfig10InitSingleE12dsy_gpio_pin
 293              	.LVL17:
  38:DaisyDrone.cpp ****     hw.adc.Init(adcConfig, 2);
 294              		.loc 7 38 5 is_stmt 1 view .LVU57
 295              		.loc 7 38 16 is_stmt 0 view .LVU58
 296 0064 0BA9     		add	r1, sp, #44
 297 0066 0222     		movs	r2, #2
 298 0068 0423     		movs	r3, #4
 299 006a 3C48     		ldr	r0, .L20+12
 300 006c FFF7FEFF 		bl	_ZN5daisy9AdcHandle4InitEPNS_16AdcChannelConfigEjNS0_12OverSamplingE
 301              	.LVL18:
  39:DaisyDrone.cpp ****     hw.adc.Start();
 302              		.loc 7 39 5 is_stmt 1 view .LVU59
 303              		.loc 7 39 17 is_stmt 0 view .LVU60
 304 0070 3A48     		ldr	r0, .L20+12
 305 0072 FFF7FEFF 		bl	_ZN5daisy9AdcHandle5StartEv
 306              	.LVL19:
  40:DaisyDrone.cpp **** 
  41:DaisyDrone.cpp ****     //Set up oscillator
  42:DaisyDrone.cpp ****     osc.Init( hw.AudioSampleRate() );
 307              		.loc 7 42 5 is_stmt 1 view .LVU61
 308              		.loc 7 42 13 is_stmt 0 view .LVU62
 309 0076 3648     		ldr	r0, .L20
 310 0078 FFF7FEFF 		bl	_ZN5daisy9DaisySeed15AudioSampleRateEv
 311              	.LVL20:
 312              	.LBB129:
 313              	.LBB122:
  45:../../Documents/Daisy/DaisyExamples/daisysp//Source/Synthesis/oscillator.h ****         freq_      = 100.0f;
 314              		.loc 6 45 27 view .LVU63
 315 007c F7EE006A 		vmov.f32	s13, #1.0e+0
 316              	.LBE122:
 317              	.LBE129:
 318              		.loc 7 42 13 view .LVU64
 319 0080 F0EE407A 		vmov.f32	s15, s0
 320              	.LVL21:
 321              	.LBB130:
 322              	.LBI119:
  42:../../Documents/Daisy/DaisyExamples/daisysp//Source/Synthesis/oscillator.h ****     {
 323              		.loc 6 42 10 is_stmt 1 view .LVU65
 324              	.LBB123:
  44:../../Documents/Daisy/DaisyExamples/daisysp//Source/Synthesis/oscillator.h ****         sr_recip_  = 1.0f / sample_rate;
ARM GAS  /var/folders/j4/zsgv5hks61j070b3g480n1j40000gn/T//ccw8ESSH.s 			page 16


 325              		.loc 6 44 9 view .LVU66
  48:../../Documents/Daisy/DaisyExamples/daisysp//Source/Synthesis/oscillator.h ****         phase_     = 0.0f;
 326              		.loc 6 48 20 is_stmt 0 view .LVU67
 327 0084 0023     		movs	r3, #0
  46:../../Documents/Daisy/DaisyExamples/daisysp//Source/Synthesis/oscillator.h ****         amp_       = 0.5f;
 328              		.loc 6 46 20 view .LVU68
 329 0086 9FED360A 		vldr.32	s0, .L20+16
 330              	.LVL22:
  49:../../Documents/Daisy/DaisyExamples/daisysp//Source/Synthesis/oscillator.h ****         phase_inc_ = CalcPhaseInc(freq_);
 331              		.loc 6 49 34 view .LVU69
 332 008a 2046     		mov	r0, r4
  48:../../Documents/Daisy/DaisyExamples/daisysp//Source/Synthesis/oscillator.h ****         phase_     = 0.0f;
 333              		.loc 6 48 20 view .LVU70
 334 008c 6361     		str	r3, [r4, #20]	@ float
  45:../../Documents/Daisy/DaisyExamples/daisysp//Source/Synthesis/oscillator.h ****         freq_      = 100.0f;
 335              		.loc 6 45 27 view .LVU71
 336 008e 86EEA77A 		vdiv.f32	s14, s13, s15
  44:../../Documents/Daisy/DaisyExamples/daisysp//Source/Synthesis/oscillator.h ****         sr_recip_  = 1.0f / sample_rate;
 337              		.loc 6 44 20 view .LVU72
 338 0092 C4ED037A 		vstr.32	s15, [r4, #12]
  45:../../Documents/Daisy/DaisyExamples/daisysp//Source/Synthesis/oscillator.h ****         freq_      = 100.0f;
 339              		.loc 6 45 9 is_stmt 1 view .LVU73
  46:../../Documents/Daisy/DaisyExamples/daisysp//Source/Synthesis/oscillator.h ****         amp_       = 0.5f;
 340              		.loc 6 46 20 is_stmt 0 view .LVU74
 341 0096 84ED020A 		vstr.32	s0, [r4, #8]
  47:../../Documents/Daisy/DaisyExamples/daisysp//Source/Synthesis/oscillator.h ****         phase_     = 0.0f;
 342              		.loc 6 47 20 view .LVU75
 343 009a 84ED018A 		vstr.32	s16, [r4, #4]
  45:../../Documents/Daisy/DaisyExamples/daisysp//Source/Synthesis/oscillator.h ****         freq_      = 100.0f;
 344              		.loc 6 45 20 view .LVU76
 345 009e 84ED047A 		vstr.32	s14, [r4, #16]
  46:../../Documents/Daisy/DaisyExamples/daisysp//Source/Synthesis/oscillator.h ****         amp_       = 0.5f;
 346              		.loc 6 46 9 is_stmt 1 view .LVU77
  47:../../Documents/Daisy/DaisyExamples/daisysp//Source/Synthesis/oscillator.h ****         phase_     = 0.0f;
 347              		.loc 6 47 9 view .LVU78
  48:../../Documents/Daisy/DaisyExamples/daisysp//Source/Synthesis/oscillator.h ****         phase_inc_ = CalcPhaseInc(freq_);
 348              		.loc 6 48 9 view .LVU79
 349              		.loc 6 49 9 view .LVU80
 350              		.loc 6 49 34 is_stmt 0 view .LVU81
 351 00a2 FFF7FEFF 		bl	_ZN7daisysp10Oscillator12CalcPhaseIncEf
 352              	.LVL23:
 353              		.loc 6 49 34 view .LVU82
 354 00a6 F0EE407A 		vmov.f32	s15, s0
  50:../../Documents/Daisy/DaisyExamples/daisysp//Source/Synthesis/oscillator.h ****         waveform_  = WAVE_SIN;
 355              		.loc 6 50 20 view .LVU83
 356 00aa 0022     		movs	r2, #0
  51:../../Documents/Daisy/DaisyExamples/daisysp//Source/Synthesis/oscillator.h ****         eoc_       = true;
  52:../../Documents/Daisy/DaisyExamples/daisysp//Source/Synthesis/oscillator.h ****         eor_       = true;
 357              		.loc 6 52 20 view .LVU84
 358 00ac 40F20113 		movw	r3, #257
 359              	.LBE123:
 360              	.LBE130:
 361              	.LBB131:
 362              	.LBB132:
  53:../../Documents/Daisy/DaisyExamples/daisysp//Source/Synthesis/oscillator.h ****     }
  54:../../Documents/Daisy/DaisyExamples/daisysp//Source/Synthesis/oscillator.h **** 
  55:../../Documents/Daisy/DaisyExamples/daisysp//Source/Synthesis/oscillator.h **** 
ARM GAS  /var/folders/j4/zsgv5hks61j070b3g480n1j40000gn/T//ccw8ESSH.s 			page 17


  56:../../Documents/Daisy/DaisyExamples/daisysp//Source/Synthesis/oscillator.h ****     /** Changes the frequency of the Oscillator, and recalculates phase increment.
  57:../../Documents/Daisy/DaisyExamples/daisysp//Source/Synthesis/oscillator.h ****     */
  58:../../Documents/Daisy/DaisyExamples/daisysp//Source/Synthesis/oscillator.h ****     inline void SetFreq(const float f)
  59:../../Documents/Daisy/DaisyExamples/daisysp//Source/Synthesis/oscillator.h ****     {
  60:../../Documents/Daisy/DaisyExamples/daisysp//Source/Synthesis/oscillator.h ****         freq_      = f;
 363              		.loc 6 60 20 view .LVU85
 364 00b0 9FED2C0A 		vldr.32	s0, .L20+20
  61:../../Documents/Daisy/DaisyExamples/daisysp//Source/Synthesis/oscillator.h ****         phase_inc_ = CalcPhaseInc(f);
 365              		.loc 6 61 34 view .LVU86
 366 00b4 2046     		mov	r0, r4
 367              	.LBE132:
 368              	.LBE131:
 369              	.LBB136:
 370              	.LBB124:
  50:../../Documents/Daisy/DaisyExamples/daisysp//Source/Synthesis/oscillator.h ****         eoc_       = true;
 371              		.loc 6 50 20 view .LVU87
 372 00b6 2270     		strb	r2, [r4]
  49:../../Documents/Daisy/DaisyExamples/daisysp//Source/Synthesis/oscillator.h ****         waveform_  = WAVE_SIN;
 373              		.loc 6 49 20 view .LVU88
 374 00b8 C4ED067A 		vstr.32	s15, [r4, #24]
  50:../../Documents/Daisy/DaisyExamples/daisysp//Source/Synthesis/oscillator.h ****         eoc_       = true;
 375              		.loc 6 50 9 is_stmt 1 view .LVU89
  51:../../Documents/Daisy/DaisyExamples/daisysp//Source/Synthesis/oscillator.h ****         eor_       = true;
 376              		.loc 6 51 9 view .LVU90
  52:../../Documents/Daisy/DaisyExamples/daisysp//Source/Synthesis/oscillator.h ****     }
 377              		.loc 6 52 9 view .LVU91
  52:../../Documents/Daisy/DaisyExamples/daisysp//Source/Synthesis/oscillator.h ****     }
 378              		.loc 6 52 20 is_stmt 0 view .LVU92
 379 00bc A384     		strh	r3, [r4, #36]	@ movhi
 380              	.LVL24:
  52:../../Documents/Daisy/DaisyExamples/daisysp//Source/Synthesis/oscillator.h ****     }
 381              		.loc 6 52 20 view .LVU93
 382              	.LBE124:
 383              	.LBE136:
  43:DaisyDrone.cpp ****     osc.SetWaveform(osc.WAVE_SIN);
 384              		.loc 7 43 5 is_stmt 1 view .LVU94
  62:../../Documents/Daisy/DaisyExamples/daisysp//Source/Synthesis/oscillator.h ****     }
  63:../../Documents/Daisy/DaisyExamples/daisysp//Source/Synthesis/oscillator.h **** 
  64:../../Documents/Daisy/DaisyExamples/daisysp//Source/Synthesis/oscillator.h **** 
  65:../../Documents/Daisy/DaisyExamples/daisysp//Source/Synthesis/oscillator.h ****     /** Sets the amplitude of the waveform.
  66:../../Documents/Daisy/DaisyExamples/daisysp//Source/Synthesis/oscillator.h ****     */
  67:../../Documents/Daisy/DaisyExamples/daisysp//Source/Synthesis/oscillator.h ****     inline void SetAmp(const float a) { amp_ = a; }
  68:../../Documents/Daisy/DaisyExamples/daisysp//Source/Synthesis/oscillator.h ****     /** Sets the waveform to be synthesized by the Process() function.
  69:../../Documents/Daisy/DaisyExamples/daisysp//Source/Synthesis/oscillator.h ****     */
  70:../../Documents/Daisy/DaisyExamples/daisysp//Source/Synthesis/oscillator.h ****     inline void SetWaveform(const uint8_t wf)
  71:../../Documents/Daisy/DaisyExamples/daisysp//Source/Synthesis/oscillator.h ****     {
  72:../../Documents/Daisy/DaisyExamples/daisysp//Source/Synthesis/oscillator.h ****         waveform_ = wf < WAVE_LAST ? wf : WAVE_SIN;
 385              		.loc 6 72 9 view .LVU95
  44:DaisyDrone.cpp ****     osc.SetAmp(0.5f);
 386              		.loc 7 44 5 view .LVU96
 387              	.LBB137:
 388              	.LBI137:
  67:../../Documents/Daisy/DaisyExamples/daisysp//Source/Synthesis/oscillator.h ****     /** Sets the waveform to be synthesized by the Process() function.
 389              		.loc 6 67 17 view .LVU97
 390              	.LBB138:
  67:../../Documents/Daisy/DaisyExamples/daisysp//Source/Synthesis/oscillator.h ****     /** Sets the waveform to be synthesized by the Process() function.
 391              		.loc 6 67 41 view .LVU98
ARM GAS  /var/folders/j4/zsgv5hks61j070b3g480n1j40000gn/T//ccw8ESSH.s 			page 18


  67:../../Documents/Daisy/DaisyExamples/daisysp//Source/Synthesis/oscillator.h ****     /** Sets the waveform to be synthesized by the Process() function.
 392              		.loc 6 67 41 is_stmt 0 view .LVU99
 393              	.LBE138:
 394              	.LBE137:
  45:DaisyDrone.cpp ****     osc.SetFreq(440);
 395              		.loc 7 45 5 is_stmt 1 view .LVU100
 396              	.LBB140:
 397              	.LBI131:
  58:../../Documents/Daisy/DaisyExamples/daisysp//Source/Synthesis/oscillator.h ****     {
 398              		.loc 6 58 17 view .LVU101
 399              	.LBB133:
  60:../../Documents/Daisy/DaisyExamples/daisysp//Source/Synthesis/oscillator.h ****         phase_inc_ = CalcPhaseInc(f);
 400              		.loc 6 60 9 view .LVU102
  61:../../Documents/Daisy/DaisyExamples/daisysp//Source/Synthesis/oscillator.h ****     }
 401              		.loc 6 61 9 view .LVU103
 402              	.LBE133:
 403              	.LBE140:
 404              	.LBB141:
 405              	.LBB139:
  67:../../Documents/Daisy/DaisyExamples/daisysp//Source/Synthesis/oscillator.h ****     /** Sets the waveform to be synthesized by the Process() function.
 406              		.loc 6 67 46 is_stmt 0 view .LVU104
 407 00be 84ED018A 		vstr.32	s16, [r4, #4]
 408              	.LBE139:
 409              	.LBE141:
 410              	.LBB142:
 411              	.LBB134:
  60:../../Documents/Daisy/DaisyExamples/daisysp//Source/Synthesis/oscillator.h ****         phase_inc_ = CalcPhaseInc(f);
 412              		.loc 6 60 20 view .LVU105
 413 00c2 84ED020A 		vstr.32	s0, [r4, #8]
  61:../../Documents/Daisy/DaisyExamples/daisysp//Source/Synthesis/oscillator.h ****     }
 414              		.loc 6 61 34 view .LVU106
 415 00c6 FFF7FEFF 		bl	_ZN7daisysp10Oscillator12CalcPhaseIncEf
 416              	.LVL25:
 417              	.LBE134:
 418              	.LBE142:
  46:DaisyDrone.cpp **** 
  47:DaisyDrone.cpp **** 	// NOTE: AGND and DGND must be connected for audio and ADC to work
  48:DaisyDrone.cpp **** 	hw.StartAudio(audio_callback);
 419              		.loc 7 48 15 view .LVU107
 420 00ca 2148     		ldr	r0, .L20
 421 00cc 2649     		ldr	r1, .L20+24
 422              	.LBB143:
 423              	.LBB135:
  61:../../Documents/Daisy/DaisyExamples/daisysp//Source/Synthesis/oscillator.h ****     }
 424              		.loc 6 61 20 view .LVU108
 425 00ce 84ED060A 		vstr.32	s0, [r4, #24]
 426              	.LVL26:
  61:../../Documents/Daisy/DaisyExamples/daisysp//Source/Synthesis/oscillator.h ****     }
 427              		.loc 6 61 20 view .LVU109
 428              	.LBE135:
 429              	.LBE143:
 430              		.loc 7 48 2 is_stmt 1 view .LVU110
 431              		.loc 7 48 15 is_stmt 0 view .LVU111
 432 00d2 FFF7FEFF 		bl	_ZN5daisy9DaisySeed10StartAudioEPFvPKPKfPPfjE
 433              	.LVL27:
  49:DaisyDrone.cpp **** 
  50:DaisyDrone.cpp **** 	hw.PrintLine("Startup complete");
ARM GAS  /var/folders/j4/zsgv5hks61j070b3g480n1j40000gn/T//ccw8ESSH.s 			page 19


 434              		.loc 7 50 2 is_stmt 1 view .LVU112
 435              	.LBB144:
 436              	.LBI144:
 127:../../Documents/Daisy/DaisyExamples/libdaisy//src/daisy_seed.h ****     {
 437              		.loc 1 127 17 view .LVU113
 438              	.LBB145:
 129:../../Documents/Daisy/DaisyExamples/libdaisy//src/daisy_seed.h ****     }
 439              		.loc 1 129 23 is_stmt 0 view .LVU114
 440 00d6 2548     		ldr	r0, .L20+28
 441 00d8 FFF7FEFF 		bl	_ZN5daisy6LoggerILNS_17LoggerDestinationE1EE9PrintLineEPKcz
 442              	.LVL28:
 443              	.L18:
 129:../../Documents/Daisy/DaisyExamples/libdaisy//src/daisy_seed.h ****     }
 444              		.loc 1 129 23 view .LVU115
 445              	.LBE145:
 446              	.LBE144:
  51:DaisyDrone.cpp **** 
  52:DaisyDrone.cpp **** 	while(1)
 447              		.loc 7 52 2 is_stmt 1 discriminator 1 view .LVU116
 448              	.LBB146:
  53:DaisyDrone.cpp **** 	{
  54:DaisyDrone.cpp **** 		const float pot_val = hw.adc.GetFloat(0);
 449              		.loc 7 54 3 discriminator 1 view .LVU117
 450              		.loc 7 54 40 is_stmt 0 discriminator 1 view .LVU118
 451 00dc 0021     		movs	r1, #0
 452 00de 1F48     		ldr	r0, .L20+12
 453 00e0 FFF7FEFF 		bl	_ZNK5daisy9AdcHandle8GetFloatEh
 454              	.LVL29:
  55:DaisyDrone.cpp **** 		osc.SetAmp(pot_val);
  56:DaisyDrone.cpp **** 		osc.SetFreq(pot_val*2000.0f);
 455              		.loc 7 56 14 discriminator 1 view .LVU119
 456 00e4 DFED227A 		vldr.32	s15, .L20+32
  54:DaisyDrone.cpp **** 		osc.SetAmp(pot_val);
 457              		.loc 7 54 40 discriminator 1 view .LVU120
 458 00e8 B0EE408A 		vmov.f32	s16, s0
 459              	.LVL30:
  55:DaisyDrone.cpp **** 		osc.SetAmp(pot_val);
 460              		.loc 7 55 3 is_stmt 1 discriminator 1 view .LVU121
 461              	.LBB147:
 462              	.LBI147:
  67:../../Documents/Daisy/DaisyExamples/daisysp//Source/Synthesis/oscillator.h ****     /** Sets the waveform to be synthesized by the Process() function.
 463              		.loc 6 67 17 discriminator 1 view .LVU122
 464              	.LBB148:
  67:../../Documents/Daisy/DaisyExamples/daisysp//Source/Synthesis/oscillator.h ****     /** Sets the waveform to be synthesized by the Process() function.
 465              		.loc 6 67 41 discriminator 1 view .LVU123
 466              	.LBE148:
 467              	.LBE147:
  57:DaisyDrone.cpp **** 	
  58:DaisyDrone.cpp **** 		const int pot_val_int = pot_val*1000;
 468              		.loc 7 58 34 is_stmt 0 discriminator 1 view .LVU124
 469 00ec 9FED1A9A 		vldr.32	s18, .L20+8
  56:DaisyDrone.cpp **** 	
 470              		.loc 7 56 14 discriminator 1 view .LVU125
 471 00f0 20EE270A 		vmul.f32	s0, s0, s15
 472              	.LVL31:
 473              	.LBB150:
 474              	.LBB151:
ARM GAS  /var/folders/j4/zsgv5hks61j070b3g480n1j40000gn/T//ccw8ESSH.s 			page 20


  61:../../Documents/Daisy/DaisyExamples/daisysp//Source/Synthesis/oscillator.h ****     }
 475              		.loc 6 61 34 discriminator 1 view .LVU126
 476 00f4 1748     		ldr	r0, .L20+4
 477              	.LBE151:
 478              	.LBE150:
 479              	.LBB154:
 480              	.LBB149:
  67:../../Documents/Daisy/DaisyExamples/daisysp//Source/Synthesis/oscillator.h ****     /** Sets the waveform to be synthesized by the Process() function.
 481              		.loc 6 67 46 discriminator 1 view .LVU127
 482 00f6 84ED018A 		vstr.32	s16, [r4, #4]
 483              	.LVL32:
  67:../../Documents/Daisy/DaisyExamples/daisysp//Source/Synthesis/oscillator.h ****     /** Sets the waveform to be synthesized by the Process() function.
 484              		.loc 6 67 46 discriminator 1 view .LVU128
 485              	.LBE149:
 486              	.LBE154:
  56:DaisyDrone.cpp **** 	
 487              		.loc 7 56 3 is_stmt 1 discriminator 1 view .LVU129
 488              	.LBB155:
 489              	.LBI150:
  58:../../Documents/Daisy/DaisyExamples/daisysp//Source/Synthesis/oscillator.h ****     {
 490              		.loc 6 58 17 discriminator 1 view .LVU130
 491              	.LBB152:
  60:../../Documents/Daisy/DaisyExamples/daisysp//Source/Synthesis/oscillator.h ****         phase_inc_ = CalcPhaseInc(f);
 492              		.loc 6 60 9 discriminator 1 view .LVU131
  60:../../Documents/Daisy/DaisyExamples/daisysp//Source/Synthesis/oscillator.h ****         phase_inc_ = CalcPhaseInc(f);
 493              		.loc 6 60 20 is_stmt 0 discriminator 1 view .LVU132
 494 00fa 84ED020A 		vstr.32	s0, [r4, #8]
  61:../../Documents/Daisy/DaisyExamples/daisysp//Source/Synthesis/oscillator.h ****     }
 495              		.loc 6 61 9 is_stmt 1 discriminator 1 view .LVU133
  61:../../Documents/Daisy/DaisyExamples/daisysp//Source/Synthesis/oscillator.h ****     }
 496              		.loc 6 61 34 is_stmt 0 discriminator 1 view .LVU134
 497 00fe FFF7FEFF 		bl	_ZN7daisysp10Oscillator12CalcPhaseIncEf
 498              	.LVL33:
  61:../../Documents/Daisy/DaisyExamples/daisysp//Source/Synthesis/oscillator.h ****     }
 499              		.loc 6 61 34 discriminator 1 view .LVU135
 500              	.LBE152:
 501              	.LBE155:
  59:DaisyDrone.cpp **** 		const int pot2_val_int = hw.adc.GetFloat(1) * 1000;
 502              		.loc 7 59 43 discriminator 1 view .LVU136
 503 0102 0121     		movs	r1, #1
 504 0104 1548     		ldr	r0, .L20+12
 505              	.LBB156:
 506              	.LBB153:
  61:../../Documents/Daisy/DaisyExamples/daisysp//Source/Synthesis/oscillator.h ****     }
 507              		.loc 6 61 20 discriminator 1 view .LVU137
 508 0106 84ED060A 		vstr.32	s0, [r4, #24]
 509              	.LVL34:
  61:../../Documents/Daisy/DaisyExamples/daisysp//Source/Synthesis/oscillator.h ****     }
 510              		.loc 6 61 20 discriminator 1 view .LVU138
 511              	.LBE153:
 512              	.LBE156:
  58:DaisyDrone.cpp **** 		const int pot2_val_int = hw.adc.GetFloat(1) * 1000;
 513              		.loc 7 58 3 is_stmt 1 discriminator 1 view .LVU139
 514              		.loc 7 59 3 discriminator 1 view .LVU140
 515              		.loc 7 59 43 is_stmt 0 discriminator 1 view .LVU141
 516 010a FFF7FEFF 		bl	_ZNK5daisy9AdcHandle8GetFloatEh
 517              	.LVL35:
ARM GAS  /var/folders/j4/zsgv5hks61j070b3g480n1j40000gn/T//ccw8ESSH.s 			page 21


  58:DaisyDrone.cpp **** 		const int pot2_val_int = hw.adc.GetFloat(1) * 1000;
 518              		.loc 7 58 34 discriminator 1 view .LVU142
 519 010e 68EE097A 		vmul.f32	s15, s16, s18
 520              	.LBB157:
 521              	.LBB158:
 129:../../Documents/Daisy/DaisyExamples/libdaisy//src/daisy_seed.h ****     }
 522              		.loc 1 129 23 discriminator 1 view .LVU143
 523 0112 1848     		ldr	r0, .L20+36
 524              	.LBE158:
 525              	.LBE157:
 526              		.loc 7 59 43 discriminator 1 view .LVU144
 527 0114 F0EE408A 		vmov.f32	s17, s0
 528              	.LVL36:
  60:DaisyDrone.cpp **** 		hw.PrintLine("pot 1 %d", pot_val_int);
 529              		.loc 7 60 3 is_stmt 1 discriminator 1 view .LVU145
 530              	.LBB160:
 531              	.LBI157:
 127:../../Documents/Daisy/DaisyExamples/libdaisy//src/daisy_seed.h ****     {
 532              		.loc 1 127 17 discriminator 1 view .LVU146
 533              	.LBB159:
 129:../../Documents/Daisy/DaisyExamples/libdaisy//src/daisy_seed.h ****     }
 534              		.loc 1 129 23 is_stmt 0 discriminator 1 view .LVU147
 535 0118 FDEEE77A 		vcvt.s32.f32	s15, s15
 536 011c 17EE901A 		vmov	r1, s15	@ int
 537 0120 FFF7FEFF 		bl	_ZN5daisy6LoggerILNS_17LoggerDestinationE1EE9PrintLineEPKcz
 538              	.LVL37:
 129:../../Documents/Daisy/DaisyExamples/libdaisy//src/daisy_seed.h ****     }
 539              		.loc 1 129 23 discriminator 1 view .LVU148
 540              	.LBE159:
 541              	.LBE160:
  61:DaisyDrone.cpp **** 		hw.PrintLine("pot 2 %d", pot2_val_int);
 542              		.loc 7 61 3 is_stmt 1 discriminator 1 view .LVU149
 543              	.LBB161:
 544              	.LBI161:
 127:../../Documents/Daisy/DaisyExamples/libdaisy//src/daisy_seed.h ****     {
 545              		.loc 1 127 17 discriminator 1 view .LVU150
 546              	.LBE161:
  59:DaisyDrone.cpp **** 		hw.PrintLine("pot 1 %d", pot_val_int);
 547              		.loc 7 59 47 is_stmt 0 discriminator 1 view .LVU151
 548 0124 28EE890A 		vmul.f32	s0, s17, s18
 549              	.LBB163:
 550              	.LBB162:
 129:../../Documents/Daisy/DaisyExamples/libdaisy//src/daisy_seed.h ****     }
 551              		.loc 1 129 23 discriminator 1 view .LVU152
 552 0128 1348     		ldr	r0, .L20+40
 553 012a FDEEC07A 		vcvt.s32.f32	s15, s0
 554 012e 17EE901A 		vmov	r1, s15	@ int
 555 0132 FFF7FEFF 		bl	_ZN5daisy6LoggerILNS_17LoggerDestinationE1EE9PrintLineEPKcz
 556              	.LVL38:
 129:../../Documents/Daisy/DaisyExamples/libdaisy//src/daisy_seed.h ****     }
 557              		.loc 1 129 23 discriminator 1 view .LVU153
 558              	.LBE162:
 559              	.LBE163:
  62:DaisyDrone.cpp **** 
  63:DaisyDrone.cpp **** 		led1.Set(pot_val);
 560              		.loc 7 63 3 is_stmt 1 discriminator 1 view .LVU154
 561              		.loc 7 63 11 is_stmt 0 discriminator 1 view .LVU155
ARM GAS  /var/folders/j4/zsgv5hks61j070b3g480n1j40000gn/T//ccw8ESSH.s 			page 22


 562 0136 B0EE480A 		vmov.f32	s0, s16
 563 013a 04A8     		add	r0, sp, #16
 564 013c FFF7FEFF 		bl	_ZN5daisy3Led3SetEf
 565              	.LVL39:
  64:DaisyDrone.cpp **** 		led1.Update();
 566              		.loc 7 64 3 is_stmt 1 discriminator 1 view .LVU156
 567              		.loc 7 64 14 is_stmt 0 discriminator 1 view .LVU157
 568 0140 04A8     		add	r0, sp, #16
 569 0142 FFF7FEFF 		bl	_ZN5daisy3Led6UpdateEv
 570              	.LVL40:
  65:DaisyDrone.cpp **** 
  66:DaisyDrone.cpp ****         //wait 1 ms
  67:DaisyDrone.cpp ****         System::Delay(1);		
 571              		.loc 7 67 9 is_stmt 1 discriminator 1 view .LVU158
 572              		.loc 7 67 22 is_stmt 0 discriminator 1 view .LVU159
 573 0146 0120     		movs	r0, #1
 574 0148 FFF7FEFF 		bl	_ZN5daisy6System5DelayEm
 575              	.LVL41:
 576              	.LBE146:
  52:DaisyDrone.cpp **** 	{
 577              		.loc 7 52 2 is_stmt 1 discriminator 1 view .LVU160
 578 014c C6E7     		b	.L18
 579              	.L21:
 580 014e 00BF     		.align	2
 581              	.L20:
 582 0150 00000000 		.word	.LANCHOR1
 583 0154 00000000 		.word	.LANCHOR0
 584 0158 00007A44 		.word	1148846080
 585 015c 18000000 		.word	.LANCHOR1+24
 586 0160 0000C842 		.word	1120403456
 587 0164 0000DC43 		.word	1138491392
 588 0168 00000000 		.word	_Z14audio_callbackPKPKfPPfj
 589 016c 00000000 		.word	.LC0
 590 0170 0000FA44 		.word	1157234688
 591 0174 14000000 		.word	.LC1
 592 0178 20000000 		.word	.LC2
 593              		.cfi_endproc
 594              	.LFE4269:
 596              		.section	.text.startup._GLOBAL__sub_I_hw,"ax",%progbits
 597              		.align	1
 598              		.p2align 2,,3
 599              		.syntax unified
 600              		.thumb
 601              		.thumb_func
 603              	_GLOBAL__sub_I_hw:
 604              	.LFB4828:
  68:DaisyDrone.cpp **** 	}
  69:DaisyDrone.cpp **** }
 605              		.loc 7 69 1 view -0
 606              		.cfi_startproc
 607              		@ args = 0, pretend = 0, frame = 0
 608              		@ frame_needed = 0, uses_anonymous_args = 0
 609              	.LBB184:
 610              	.LBI184:
 611              		.loc 7 69 1 view .LVU162
 612              	.LVL42:
 613              	.LBB185:
ARM GAS  /var/folders/j4/zsgv5hks61j070b3g480n1j40000gn/T//ccw8ESSH.s 			page 23


 614              	.LBB186:
 615              	.LBI186:
  21:../../Documents/Daisy/DaisyExamples/libdaisy//src/daisy_seed.h ****     ~DaisySeed() {}
 616              		.loc 1 21 5 view .LVU163
 617              	.LBB187:
 618              	.LBB188:
 619              	.LBI188:
 620              		.file 9 "../../Documents/Daisy/DaisyExamples/libdaisy//src/per/qspi.h"
   1:../../Documents/Daisy/DaisyExamples/libdaisy//src/per/qspi.h **** #ifndef DSY_QSPI
   2:../../Documents/Daisy/DaisyExamples/libdaisy//src/per/qspi.h **** #define DSY_QSPI /**< Macro */
   3:../../Documents/Daisy/DaisyExamples/libdaisy//src/per/qspi.h **** 
   4:../../Documents/Daisy/DaisyExamples/libdaisy//src/per/qspi.h **** #ifndef UNIT_TEST // for unit tests, a dummy implementation
   5:../../Documents/Daisy/DaisyExamples/libdaisy//src/per/qspi.h **** 
   6:../../Documents/Daisy/DaisyExamples/libdaisy//src/per/qspi.h **** #include <cstdint>
   7:../../Documents/Daisy/DaisyExamples/libdaisy//src/per/qspi.h **** #include "daisy_core.h" // Added for dsy_gpio_pin typedef
   8:../../Documents/Daisy/DaisyExamples/libdaisy//src/per/qspi.h **** 
   9:../../Documents/Daisy/DaisyExamples/libdaisy//src/per/qspi.h **** #define DSY_QSPI_TEXT       \
  10:../../Documents/Daisy/DaisyExamples/libdaisy//src/per/qspi.h ****     __attribute__((section( \
  11:../../Documents/Daisy/DaisyExamples/libdaisy//src/per/qspi.h ****         ".qspiflash_text"))) /**< used for reading memory in memory_mapped mode. */
  12:../../Documents/Daisy/DaisyExamples/libdaisy//src/per/qspi.h **** #define DSY_QSPI_DATA       \
  13:../../Documents/Daisy/DaisyExamples/libdaisy//src/per/qspi.h ****     __attribute__((section( \
  14:../../Documents/Daisy/DaisyExamples/libdaisy//src/per/qspi.h ****         ".qspiflash_data"))) /**< used for reading memory in memory_mapped mode. */
  15:../../Documents/Daisy/DaisyExamples/libdaisy//src/per/qspi.h **** #define DSY_QSPI_BSS        \
  16:../../Documents/Daisy/DaisyExamples/libdaisy//src/per/qspi.h ****     __attribute__((section( \
  17:../../Documents/Daisy/DaisyExamples/libdaisy//src/per/qspi.h ****         ".qspiflash_bss"))) /**< used for reading memory in memory_mapped mode. */
  18:../../Documents/Daisy/DaisyExamples/libdaisy//src/per/qspi.h **** 
  19:../../Documents/Daisy/DaisyExamples/libdaisy//src/per/qspi.h **** namespace daisy
  20:../../Documents/Daisy/DaisyExamples/libdaisy//src/per/qspi.h **** {
  21:../../Documents/Daisy/DaisyExamples/libdaisy//src/per/qspi.h **** /** @addtogroup serial
  22:../../Documents/Daisy/DaisyExamples/libdaisy//src/per/qspi.h **** @{
  23:../../Documents/Daisy/DaisyExamples/libdaisy//src/per/qspi.h **** */
  24:../../Documents/Daisy/DaisyExamples/libdaisy//src/per/qspi.h **** 
  25:../../Documents/Daisy/DaisyExamples/libdaisy//src/per/qspi.h **** /** 
  26:../../Documents/Daisy/DaisyExamples/libdaisy//src/per/qspi.h ****  Driver for QSPI peripheral to interface with external flash memory. \n 
  27:../../Documents/Daisy/DaisyExamples/libdaisy//src/per/qspi.h ****     Currently supported QSPI Devices: \n 
  28:../../Documents/Daisy/DaisyExamples/libdaisy//src/per/qspi.h ****     * IS25LP080D
  29:../../Documents/Daisy/DaisyExamples/libdaisy//src/per/qspi.h **** */
  30:../../Documents/Daisy/DaisyExamples/libdaisy//src/per/qspi.h **** class QSPIHandle
  31:../../Documents/Daisy/DaisyExamples/libdaisy//src/per/qspi.h **** {
  32:../../Documents/Daisy/DaisyExamples/libdaisy//src/per/qspi.h ****   public:
  33:../../Documents/Daisy/DaisyExamples/libdaisy//src/per/qspi.h ****     enum Result
  34:../../Documents/Daisy/DaisyExamples/libdaisy//src/per/qspi.h ****     {
  35:../../Documents/Daisy/DaisyExamples/libdaisy//src/per/qspi.h ****         OK = 0,
  36:../../Documents/Daisy/DaisyExamples/libdaisy//src/per/qspi.h ****         ERR
  37:../../Documents/Daisy/DaisyExamples/libdaisy//src/per/qspi.h ****     };
  38:../../Documents/Daisy/DaisyExamples/libdaisy//src/per/qspi.h **** 
  39:../../Documents/Daisy/DaisyExamples/libdaisy//src/per/qspi.h ****     /** Indicates the current status of the module. 
  40:../../Documents/Daisy/DaisyExamples/libdaisy//src/per/qspi.h ****          *  Warnings are indicated by a leading W.
  41:../../Documents/Daisy/DaisyExamples/libdaisy//src/per/qspi.h ****          *  Errors are indicated by a leading E and cause an immediate exit.
  42:../../Documents/Daisy/DaisyExamples/libdaisy//src/per/qspi.h ****          * 
  43:../../Documents/Daisy/DaisyExamples/libdaisy//src/per/qspi.h ****          *  \param GOOD - No errors have been reported.
  44:../../Documents/Daisy/DaisyExamples/libdaisy//src/per/qspi.h ****          *  \param E_HAL_ERROR - HAL code did not return HAL_OK.
  45:../../Documents/Daisy/DaisyExamples/libdaisy//src/per/qspi.h ****          *  \param E_SWITCHING_MODES - An error was encountered while switching QSPI peripheral mod
  46:../../Documents/Daisy/DaisyExamples/libdaisy//src/per/qspi.h ****          *  \param E_INVALID_MODE - QSPI should not be written to while the program is executing fr
  47:../../Documents/Daisy/DaisyExamples/libdaisy//src/per/qspi.h ****          */
  48:../../Documents/Daisy/DaisyExamples/libdaisy//src/per/qspi.h ****     enum Status
  49:../../Documents/Daisy/DaisyExamples/libdaisy//src/per/qspi.h ****     {
ARM GAS  /var/folders/j4/zsgv5hks61j070b3g480n1j40000gn/T//ccw8ESSH.s 			page 24


  50:../../Documents/Daisy/DaisyExamples/libdaisy//src/per/qspi.h ****         GOOD = 0,
  51:../../Documents/Daisy/DaisyExamples/libdaisy//src/per/qspi.h ****         E_HAL_ERROR,
  52:../../Documents/Daisy/DaisyExamples/libdaisy//src/per/qspi.h ****         E_SWITCHING_MODES,
  53:../../Documents/Daisy/DaisyExamples/libdaisy//src/per/qspi.h ****         E_INVALID_MODE,
  54:../../Documents/Daisy/DaisyExamples/libdaisy//src/per/qspi.h ****     };
  55:../../Documents/Daisy/DaisyExamples/libdaisy//src/per/qspi.h **** 
  56:../../Documents/Daisy/DaisyExamples/libdaisy//src/per/qspi.h ****     /** Configuration structure for interfacing with QSPI Driver */
  57:../../Documents/Daisy/DaisyExamples/libdaisy//src/per/qspi.h ****     struct Config
  58:../../Documents/Daisy/DaisyExamples/libdaisy//src/per/qspi.h ****     {
  59:../../Documents/Daisy/DaisyExamples/libdaisy//src/per/qspi.h ****         /** Flash Devices supported. (Both of these are more-or-less the same, just different sizes
  60:../../Documents/Daisy/DaisyExamples/libdaisy//src/per/qspi.h ****         enum Device
  61:../../Documents/Daisy/DaisyExamples/libdaisy//src/per/qspi.h ****         {
  62:../../Documents/Daisy/DaisyExamples/libdaisy//src/per/qspi.h ****             IS25LP080D,  /**< & */
  63:../../Documents/Daisy/DaisyExamples/libdaisy//src/per/qspi.h ****             IS25LP064A,  /**< & */
  64:../../Documents/Daisy/DaisyExamples/libdaisy//src/per/qspi.h ****             DEVICE_LAST, /**< & */
  65:../../Documents/Daisy/DaisyExamples/libdaisy//src/per/qspi.h ****         };
  66:../../Documents/Daisy/DaisyExamples/libdaisy//src/per/qspi.h **** 
  67:../../Documents/Daisy/DaisyExamples/libdaisy//src/per/qspi.h ****         /** 
  68:../../Documents/Daisy/DaisyExamples/libdaisy//src/per/qspi.h ****         Modes of operation.
  69:../../Documents/Daisy/DaisyExamples/libdaisy//src/per/qspi.h ****         Memory Mapped mode: QSPI configured so that the QSPI can be
  70:../../Documents/Daisy/DaisyExamples/libdaisy//src/per/qspi.h ****         read from starting address 0x90000000. Writing is not
  71:../../Documents/Daisy/DaisyExamples/libdaisy//src/per/qspi.h ****         possible in this mode. \n 
  72:../../Documents/Daisy/DaisyExamples/libdaisy//src/per/qspi.h ****         Indirect Polling mode: Device driver enabled. 
  73:../../Documents/Daisy/DaisyExamples/libdaisy//src/per/qspi.h ****         */
  74:../../Documents/Daisy/DaisyExamples/libdaisy//src/per/qspi.h ****         enum Mode
  75:../../Documents/Daisy/DaisyExamples/libdaisy//src/per/qspi.h ****         {
  76:../../Documents/Daisy/DaisyExamples/libdaisy//src/per/qspi.h ****             MEMORY_MAPPED,    /**< & */
  77:../../Documents/Daisy/DaisyExamples/libdaisy//src/per/qspi.h ****             INDIRECT_POLLING, /**< & */
  78:../../Documents/Daisy/DaisyExamples/libdaisy//src/per/qspi.h ****             MODE_LAST,
  79:../../Documents/Daisy/DaisyExamples/libdaisy//src/per/qspi.h ****         };
  80:../../Documents/Daisy/DaisyExamples/libdaisy//src/per/qspi.h **** 
  81:../../Documents/Daisy/DaisyExamples/libdaisy//src/per/qspi.h ****         //SCK,  CE# (active low)
  82:../../Documents/Daisy/DaisyExamples/libdaisy//src/per/qspi.h ****         struct
  83:../../Documents/Daisy/DaisyExamples/libdaisy//src/per/qspi.h ****         {
  84:../../Documents/Daisy/DaisyExamples/libdaisy//src/per/qspi.h ****             dsy_gpio_pin io0; /**< & */
  85:../../Documents/Daisy/DaisyExamples/libdaisy//src/per/qspi.h ****             dsy_gpio_pin io1; /**< & */
  86:../../Documents/Daisy/DaisyExamples/libdaisy//src/per/qspi.h ****             dsy_gpio_pin io2; /**< & */
  87:../../Documents/Daisy/DaisyExamples/libdaisy//src/per/qspi.h ****             dsy_gpio_pin io3; /**< & */
  88:../../Documents/Daisy/DaisyExamples/libdaisy//src/per/qspi.h ****             dsy_gpio_pin clk; /**< & */
  89:../../Documents/Daisy/DaisyExamples/libdaisy//src/per/qspi.h ****             dsy_gpio_pin ncs; /**< & */
  90:../../Documents/Daisy/DaisyExamples/libdaisy//src/per/qspi.h ****         } pin_config;
  91:../../Documents/Daisy/DaisyExamples/libdaisy//src/per/qspi.h **** 
  92:../../Documents/Daisy/DaisyExamples/libdaisy//src/per/qspi.h ****         Device device;
  93:../../Documents/Daisy/DaisyExamples/libdaisy//src/per/qspi.h ****         Mode   mode;
  94:../../Documents/Daisy/DaisyExamples/libdaisy//src/per/qspi.h ****     };
  95:../../Documents/Daisy/DaisyExamples/libdaisy//src/per/qspi.h **** 
  96:../../Documents/Daisy/DaisyExamples/libdaisy//src/per/qspi.h ****     /** 
  97:../../Documents/Daisy/DaisyExamples/libdaisy//src/per/qspi.h ****         Initializes QSPI peripheral, and Resets, and prepares memory for access.
  98:../../Documents/Daisy/DaisyExamples/libdaisy//src/per/qspi.h ****         \param config should be populated with the mode, device and pin_config before calling this 
  99:../../Documents/Daisy/DaisyExamples/libdaisy//src/per/qspi.h ****         \return Result::OK or Result::ERR
 100:../../Documents/Daisy/DaisyExamples/libdaisy//src/per/qspi.h ****         */
 101:../../Documents/Daisy/DaisyExamples/libdaisy//src/per/qspi.h ****     Result Init(const Config& config);
 102:../../Documents/Daisy/DaisyExamples/libdaisy//src/per/qspi.h **** 
 103:../../Documents/Daisy/DaisyExamples/libdaisy//src/per/qspi.h ****     /** Returns the current config. */
 104:../../Documents/Daisy/DaisyExamples/libdaisy//src/per/qspi.h ****     const Config& GetConfig() const;
 105:../../Documents/Daisy/DaisyExamples/libdaisy//src/per/qspi.h **** 
 106:../../Documents/Daisy/DaisyExamples/libdaisy//src/per/qspi.h ****     // Couldn't this just be called before anything else in init? That
ARM GAS  /var/folders/j4/zsgv5hks61j070b3g480n1j40000gn/T//ccw8ESSH.s 			page 25


 107:../../Documents/Daisy/DaisyExamples/libdaisy//src/per/qspi.h ****     // would make manually calling it unnecessary.
 108:../../Documents/Daisy/DaisyExamples/libdaisy//src/per/qspi.h ****     /** 
 109:../../Documents/Daisy/DaisyExamples/libdaisy//src/per/qspi.h ****         Deinitializes the peripheral
 110:../../Documents/Daisy/DaisyExamples/libdaisy//src/per/qspi.h ****         This should be called before reinitializing QSPI in a different mode.
 111:../../Documents/Daisy/DaisyExamples/libdaisy//src/per/qspi.h ****         \return Result::OK or Result::ERR
 112:../../Documents/Daisy/DaisyExamples/libdaisy//src/per/qspi.h ****         */
 113:../../Documents/Daisy/DaisyExamples/libdaisy//src/per/qspi.h ****     Result DeInit();
 114:../../Documents/Daisy/DaisyExamples/libdaisy//src/per/qspi.h **** 
 115:../../Documents/Daisy/DaisyExamples/libdaisy//src/per/qspi.h ****     /** 
 116:../../Documents/Daisy/DaisyExamples/libdaisy//src/per/qspi.h ****         Writes a single page to to the specified address on the QSPI chip.
 117:../../Documents/Daisy/DaisyExamples/libdaisy//src/per/qspi.h ****         For IS25LP*, page size is 256 bytes.
 118:../../Documents/Daisy/DaisyExamples/libdaisy//src/per/qspi.h ****         \param address Address to write to
 119:../../Documents/Daisy/DaisyExamples/libdaisy//src/per/qspi.h ****         \param size Buffer size
 120:../../Documents/Daisy/DaisyExamples/libdaisy//src/per/qspi.h ****         \param buffer Buffer to write
 121:../../Documents/Daisy/DaisyExamples/libdaisy//src/per/qspi.h ****         \return Result::OK or Result::ERR
 122:../../Documents/Daisy/DaisyExamples/libdaisy//src/per/qspi.h ****         */
 123:../../Documents/Daisy/DaisyExamples/libdaisy//src/per/qspi.h ****     Result WritePage(uint32_t address, uint32_t size, uint8_t* buffer);
 124:../../Documents/Daisy/DaisyExamples/libdaisy//src/per/qspi.h **** 
 125:../../Documents/Daisy/DaisyExamples/libdaisy//src/per/qspi.h ****     /** 
 126:../../Documents/Daisy/DaisyExamples/libdaisy//src/per/qspi.h ****         Writes data in buffer to to the QSPI. Starting at address to address+size 
 127:../../Documents/Daisy/DaisyExamples/libdaisy//src/per/qspi.h ****         \param address Address to write to
 128:../../Documents/Daisy/DaisyExamples/libdaisy//src/per/qspi.h ****         \param size Buffer size
 129:../../Documents/Daisy/DaisyExamples/libdaisy//src/per/qspi.h ****         \param buffer Buffer to write
 130:../../Documents/Daisy/DaisyExamples/libdaisy//src/per/qspi.h ****         \return Result::OK or Result::ERR
 131:../../Documents/Daisy/DaisyExamples/libdaisy//src/per/qspi.h ****         */
 132:../../Documents/Daisy/DaisyExamples/libdaisy//src/per/qspi.h ****     Result Write(uint32_t address, uint32_t size, uint8_t* buffer);
 133:../../Documents/Daisy/DaisyExamples/libdaisy//src/per/qspi.h **** 
 134:../../Documents/Daisy/DaisyExamples/libdaisy//src/per/qspi.h ****     /** 
 135:../../Documents/Daisy/DaisyExamples/libdaisy//src/per/qspi.h ****         Erases the area specified on the chip.
 136:../../Documents/Daisy/DaisyExamples/libdaisy//src/per/qspi.h ****         Erasures will happen by 4K, 32K or 64K increments.
 137:../../Documents/Daisy/DaisyExamples/libdaisy//src/per/qspi.h ****         Smallest erase possible is 4kB at a time. (on IS25LP*)
 138:../../Documents/Daisy/DaisyExamples/libdaisy//src/per/qspi.h ****         \param start_addr Address to begin erasing from
 139:../../Documents/Daisy/DaisyExamples/libdaisy//src/per/qspi.h ****         \param end_addr  Address to stop erasing at
 140:../../Documents/Daisy/DaisyExamples/libdaisy//src/per/qspi.h ****         \return Result::OK or Result::ERR
 141:../../Documents/Daisy/DaisyExamples/libdaisy//src/per/qspi.h ****         */
 142:../../Documents/Daisy/DaisyExamples/libdaisy//src/per/qspi.h ****     Result Erase(uint32_t start_addr, uint32_t end_addr);
 143:../../Documents/Daisy/DaisyExamples/libdaisy//src/per/qspi.h **** 
 144:../../Documents/Daisy/DaisyExamples/libdaisy//src/per/qspi.h ****     /**  
 145:../../Documents/Daisy/DaisyExamples/libdaisy//src/per/qspi.h ****          Erases a single sector of the chip.  
 146:../../Documents/Daisy/DaisyExamples/libdaisy//src/per/qspi.h ****         TODO: Document the size of this function. 
 147:../../Documents/Daisy/DaisyExamples/libdaisy//src/per/qspi.h ****         \param addr Address of sector to erase
 148:../../Documents/Daisy/DaisyExamples/libdaisy//src/per/qspi.h ****         \return Result::OK or Result::ERR
 149:../../Documents/Daisy/DaisyExamples/libdaisy//src/per/qspi.h ****         */
 150:../../Documents/Daisy/DaisyExamples/libdaisy//src/per/qspi.h ****     Result EraseSector(uint32_t address);
 151:../../Documents/Daisy/DaisyExamples/libdaisy//src/per/qspi.h **** 
 152:../../Documents/Daisy/DaisyExamples/libdaisy//src/per/qspi.h ****     /** Returns the current class status. Useful for debugging.
 153:../../Documents/Daisy/DaisyExamples/libdaisy//src/per/qspi.h ****      *  \returns Status
 154:../../Documents/Daisy/DaisyExamples/libdaisy//src/per/qspi.h ****      */
 155:../../Documents/Daisy/DaisyExamples/libdaisy//src/per/qspi.h ****     Status GetStatus();
 156:../../Documents/Daisy/DaisyExamples/libdaisy//src/per/qspi.h **** 
 157:../../Documents/Daisy/DaisyExamples/libdaisy//src/per/qspi.h ****     /** Returns a pointer to the actual memory used 
 158:../../Documents/Daisy/DaisyExamples/libdaisy//src/per/qspi.h ****      *  The memory at this address is read-only
 159:../../Documents/Daisy/DaisyExamples/libdaisy//src/per/qspi.h ****      *  to write to it use the Write function.
 160:../../Documents/Daisy/DaisyExamples/libdaisy//src/per/qspi.h ****      * 
 161:../../Documents/Daisy/DaisyExamples/libdaisy//src/per/qspi.h ****      *  \param offset returns the pointer starting this 
 162:../../Documents/Daisy/DaisyExamples/libdaisy//src/per/qspi.h ****      *                many bytes into the memory
 163:../../Documents/Daisy/DaisyExamples/libdaisy//src/per/qspi.h ****     */
ARM GAS  /var/folders/j4/zsgv5hks61j070b3g480n1j40000gn/T//ccw8ESSH.s 			page 26


 164:../../Documents/Daisy/DaisyExamples/libdaisy//src/per/qspi.h ****     void* GetData(uint32_t offset = 0);
 165:../../Documents/Daisy/DaisyExamples/libdaisy//src/per/qspi.h **** 
 166:../../Documents/Daisy/DaisyExamples/libdaisy//src/per/qspi.h ****     QSPIHandle() : pimpl_(nullptr) {}
 621              		.loc 9 166 5 view .LVU164
 622              	.LBE188:
 623              	.LBE187:
 624              	.LBE186:
 625              	.LBE185:
 626              	.LBE184:
 627              		.loc 7 69 1 is_stmt 0 view .LVU165
 628 0000 08B5     		push	{r3, lr}
 629              		.cfi_def_cfa_offset 8
 630              		.cfi_offset 3, -8
 631              		.cfi_offset 14, -4
 632              	.LBB211:
 633              	.LBB209:
 634              	.LBB206:
 635              	.LBB204:
 636              	.LBB193:
 637              	.LBB189:
 638              	.LBB190:
 639              		.loc 9 166 34 view .LVU166
 640 0002 0848     		ldr	r0, .L24
 641 0004 0023     		movs	r3, #0
 642              	.LBE190:
 643              	.LBE189:
 644              	.LBE193:
 645              	.LBE204:
 646              	.LBE206:
   7:DaisyDrone.cpp **** 
 647              		.loc 7 7 11 view .LVU167
 648 0006 084A     		ldr	r2, .L24+4
 649 0008 0849     		ldr	r1, .L24+8
 650              	.LBB207:
 651              	.LBB205:
 652              	.LBB194:
 653              	.LBB192:
 654              	.LBB191:
 655              		.loc 9 166 34 view .LVU168
 656 000a 0360     		str	r3, [r0]
 657              	.LVL43:
 658              		.loc 9 166 34 view .LVU169
 659              	.LBE191:
 660              	.LBE192:
 661              	.LBE194:
 662              	.LBB195:
 663              	.LBI195:
  62:../../Documents/Daisy/DaisyExamples/libdaisy//src/hid/audio.h ****     ~AudioHandle() {}
 664              		.loc 5 62 5 is_stmt 1 view .LVU170
 665              	.LBB196:
 666              	.LBB197:
  62:../../Documents/Daisy/DaisyExamples/libdaisy//src/hid/audio.h ****     ~AudioHandle() {}
 667              		.loc 5 62 35 is_stmt 0 view .LVU171
 668 000c 4361     		str	r3, [r0, #20]
 669              	.LVL44:
  62:../../Documents/Daisy/DaisyExamples/libdaisy//src/hid/audio.h ****     ~AudioHandle() {}
 670              		.loc 5 62 35 view .LVU172
ARM GAS  /var/folders/j4/zsgv5hks61j070b3g480n1j40000gn/T//ccw8ESSH.s 			page 27


 671              	.LBE197:
 672              	.LBE196:
 673              	.LBE195:
 674              	.LBB198:
 675              	.LBI198:
  84:../../Documents/Daisy/DaisyExamples/libdaisy//src/per/adc.h ****     ~AdcHandle() {}
 676              		.loc 4 84 5 is_stmt 1 view .LVU173
  84:../../Documents/Daisy/DaisyExamples/libdaisy//src/per/adc.h ****     ~AdcHandle() {}
 677              		.loc 4 84 5 is_stmt 0 view .LVU174
 678              	.LBE198:
 679              	.LBB199:
 680              	.LBI199:
 681              		.file 10 "../../Documents/Daisy/DaisyExamples/libdaisy//src/per/dac.h"
   1:../../Documents/Daisy/DaisyExamples/libdaisy//src/per/dac.h **** #pragma once
   2:../../Documents/Daisy/DaisyExamples/libdaisy//src/per/dac.h **** #ifndef DSY_DAC_H
   3:../../Documents/Daisy/DaisyExamples/libdaisy//src/per/dac.h **** #define DSY_DAC_H
   4:../../Documents/Daisy/DaisyExamples/libdaisy//src/per/dac.h **** 
   5:../../Documents/Daisy/DaisyExamples/libdaisy//src/per/dac.h **** #include "daisy_core.h"
   6:../../Documents/Daisy/DaisyExamples/libdaisy//src/per/dac.h **** 
   7:../../Documents/Daisy/DaisyExamples/libdaisy//src/per/dac.h **** namespace daisy
   8:../../Documents/Daisy/DaisyExamples/libdaisy//src/per/dac.h **** {
   9:../../Documents/Daisy/DaisyExamples/libdaisy//src/per/dac.h **** /** DAC handle for Built-in DAC Peripheral 
  10:../../Documents/Daisy/DaisyExamples/libdaisy//src/per/dac.h ****  ** 
  11:../../Documents/Daisy/DaisyExamples/libdaisy//src/per/dac.h ****  ** For now only Normal Mode is supported,
  12:../../Documents/Daisy/DaisyExamples/libdaisy//src/per/dac.h ****  ** Sample and hold mode provides reduced power consumption, but requires a bit more setup.
  13:../../Documents/Daisy/DaisyExamples/libdaisy//src/per/dac.h ****  **
  14:../../Documents/Daisy/DaisyExamples/libdaisy//src/per/dac.h ****  ** For now connecting the DAC through other internal periphearls is also not supported.
  15:../../Documents/Daisy/DaisyExamples/libdaisy//src/per/dac.h ****  **
  16:../../Documents/Daisy/DaisyExamples/libdaisy//src/per/dac.h ****  ** Since the DAC channels have dedicated pins we don't need to pass in a pin config like with
  17:../../Documents/Daisy/DaisyExamples/libdaisy//src/per/dac.h ****  ** other modules. However, it is still important to not try to use the DAC pins for anything else.
  18:../../Documents/Daisy/DaisyExamples/libdaisy//src/per/dac.h ****  ** DAC Channel 1 is on PA4, and DAC Channel 2 is on PA5
  19:../../Documents/Daisy/DaisyExamples/libdaisy//src/per/dac.h ****  ***/
  20:../../Documents/Daisy/DaisyExamples/libdaisy//src/per/dac.h **** class DacHandle
  21:../../Documents/Daisy/DaisyExamples/libdaisy//src/per/dac.h **** {
  22:../../Documents/Daisy/DaisyExamples/libdaisy//src/per/dac.h ****   public:
  23:../../Documents/Daisy/DaisyExamples/libdaisy//src/per/dac.h ****     /** Return Values for the DacHandle class */
  24:../../Documents/Daisy/DaisyExamples/libdaisy//src/per/dac.h ****     enum class Result
  25:../../Documents/Daisy/DaisyExamples/libdaisy//src/per/dac.h ****     {
  26:../../Documents/Daisy/DaisyExamples/libdaisy//src/per/dac.h ****         OK,
  27:../../Documents/Daisy/DaisyExamples/libdaisy//src/per/dac.h ****         ERR,
  28:../../Documents/Daisy/DaisyExamples/libdaisy//src/per/dac.h ****     };
  29:../../Documents/Daisy/DaisyExamples/libdaisy//src/per/dac.h **** 
  30:../../Documents/Daisy/DaisyExamples/libdaisy//src/per/dac.h ****     /** Selects which channel(s) will be configured for use. */
  31:../../Documents/Daisy/DaisyExamples/libdaisy//src/per/dac.h ****     enum class Channel
  32:../../Documents/Daisy/DaisyExamples/libdaisy//src/per/dac.h ****     {
  33:../../Documents/Daisy/DaisyExamples/libdaisy//src/per/dac.h ****         ONE,
  34:../../Documents/Daisy/DaisyExamples/libdaisy//src/per/dac.h ****         TWO,
  35:../../Documents/Daisy/DaisyExamples/libdaisy//src/per/dac.h ****         BOTH,
  36:../../Documents/Daisy/DaisyExamples/libdaisy//src/per/dac.h ****     };
  37:../../Documents/Daisy/DaisyExamples/libdaisy//src/per/dac.h **** 
  38:../../Documents/Daisy/DaisyExamples/libdaisy//src/per/dac.h ****     /** Sets the Mode for the DAC channels.
  39:../../Documents/Daisy/DaisyExamples/libdaisy//src/per/dac.h ****      **
  40:../../Documents/Daisy/DaisyExamples/libdaisy//src/per/dac.h ****      ** Polling mode uses the blocking mode to transmit a single value at a time.
  41:../../Documents/Daisy/DaisyExamples/libdaisy//src/per/dac.h ****      **
  42:../../Documents/Daisy/DaisyExamples/libdaisy//src/per/dac.h ****      ** DMA mode uses a buffer, and periodically transmits it triggering a 
  43:../../Documents/Daisy/DaisyExamples/libdaisy//src/per/dac.h ****      ** callback to fill the buffer when it is ready for more samples.
  44:../../Documents/Daisy/DaisyExamples/libdaisy//src/per/dac.h ****      ***/
ARM GAS  /var/folders/j4/zsgv5hks61j070b3g480n1j40000gn/T//ccw8ESSH.s 			page 28


  45:../../Documents/Daisy/DaisyExamples/libdaisy//src/per/dac.h ****     enum class Mode
  46:../../Documents/Daisy/DaisyExamples/libdaisy//src/per/dac.h ****     {
  47:../../Documents/Daisy/DaisyExamples/libdaisy//src/per/dac.h ****         POLLING,
  48:../../Documents/Daisy/DaisyExamples/libdaisy//src/per/dac.h ****         DMA,
  49:../../Documents/Daisy/DaisyExamples/libdaisy//src/per/dac.h ****     };
  50:../../Documents/Daisy/DaisyExamples/libdaisy//src/per/dac.h **** 
  51:../../Documents/Daisy/DaisyExamples/libdaisy//src/per/dac.h ****     /** Sets the number of bits per sample transmitted out of the DAC.
  52:../../Documents/Daisy/DaisyExamples/libdaisy//src/per/dac.h ****      ** The output range will be: 0V - VDDA
  53:../../Documents/Daisy/DaisyExamples/libdaisy//src/per/dac.h ****      ** The resolution will be roughly: bitdepth / (VDDA - 0V) 
  54:../../Documents/Daisy/DaisyExamples/libdaisy//src/per/dac.h ****      ***/
  55:../../Documents/Daisy/DaisyExamples/libdaisy//src/per/dac.h ****     enum class BitDepth
  56:../../Documents/Daisy/DaisyExamples/libdaisy//src/per/dac.h ****     {
  57:../../Documents/Daisy/DaisyExamples/libdaisy//src/per/dac.h ****         BITS_8,
  58:../../Documents/Daisy/DaisyExamples/libdaisy//src/per/dac.h ****         BITS_12
  59:../../Documents/Daisy/DaisyExamples/libdaisy//src/per/dac.h ****     };
  60:../../Documents/Daisy/DaisyExamples/libdaisy//src/per/dac.h **** 
  61:../../Documents/Daisy/DaisyExamples/libdaisy//src/per/dac.h ****     /** Sets whether the DAC output is buffered for higher drive ability. */
  62:../../Documents/Daisy/DaisyExamples/libdaisy//src/per/dac.h ****     enum class BufferState
  63:../../Documents/Daisy/DaisyExamples/libdaisy//src/per/dac.h ****     {
  64:../../Documents/Daisy/DaisyExamples/libdaisy//src/per/dac.h ****         ENABLED,
  65:../../Documents/Daisy/DaisyExamples/libdaisy//src/per/dac.h ****         DISABLED,
  66:../../Documents/Daisy/DaisyExamples/libdaisy//src/per/dac.h ****     };
  67:../../Documents/Daisy/DaisyExamples/libdaisy//src/per/dac.h **** 
  68:../../Documents/Daisy/DaisyExamples/libdaisy//src/per/dac.h ****     /** Configuration structure for initializing the DAC structure. */
  69:../../Documents/Daisy/DaisyExamples/libdaisy//src/per/dac.h ****     struct Config
  70:../../Documents/Daisy/DaisyExamples/libdaisy//src/per/dac.h ****     {
  71:../../Documents/Daisy/DaisyExamples/libdaisy//src/per/dac.h ****         /** Target Samplerate in Hz used to configure the internal 
  72:../../Documents/Daisy/DaisyExamples/libdaisy//src/per/dac.h ****          ** timebase for DMA mode. Does nothing in POLLING mode.
  73:../../Documents/Daisy/DaisyExamples/libdaisy//src/per/dac.h ****          ** If the value is 0 at Init time this will default to 48000Hz 
  74:../../Documents/Daisy/DaisyExamples/libdaisy//src/per/dac.h ****          ** otherwise the driver will attempt meet the target.*/
  75:../../Documents/Daisy/DaisyExamples/libdaisy//src/per/dac.h ****         uint32_t target_samplerate;
  76:../../Documents/Daisy/DaisyExamples/libdaisy//src/per/dac.h **** 
  77:../../Documents/Daisy/DaisyExamples/libdaisy//src/per/dac.h ****         Channel     chn;
  78:../../Documents/Daisy/DaisyExamples/libdaisy//src/per/dac.h ****         Mode        mode;
  79:../../Documents/Daisy/DaisyExamples/libdaisy//src/per/dac.h ****         BitDepth    bitdepth;
  80:../../Documents/Daisy/DaisyExamples/libdaisy//src/per/dac.h ****         BufferState buff_state;
  81:../../Documents/Daisy/DaisyExamples/libdaisy//src/per/dac.h ****     };
  82:../../Documents/Daisy/DaisyExamples/libdaisy//src/per/dac.h **** 
  83:../../Documents/Daisy/DaisyExamples/libdaisy//src/per/dac.h ****     DacHandle() : pimpl_(nullptr) {}
 682              		.loc 10 83 5 is_stmt 1 view .LVU175
 683              	.LBB200:
 684              	.LBB201:
 685              		.loc 10 83 33 is_stmt 0 view .LVU176
 686 000e 0362     		str	r3, [r0, #32]
 687              	.LVL45:
 688              		.loc 10 83 33 view .LVU177
 689              	.LBE201:
 690              	.LBE200:
 691              	.LBE199:
 692              	.LBB202:
 693              	.LBI202:
  40:../../Documents/Daisy/DaisyExamples/libdaisy//src/hid/usb.h **** 
 694              		.loc 3 40 5 is_stmt 1 view .LVU178
  40:../../Documents/Daisy/DaisyExamples/libdaisy//src/hid/usb.h **** 
 695              		.loc 3 40 5 is_stmt 0 view .LVU179
 696              	.LBE202:
 697              	.LBB203:
ARM GAS  /var/folders/j4/zsgv5hks61j070b3g480n1j40000gn/T//ccw8ESSH.s 			page 29


 698              	.LBI203:
  77:../../Documents/Daisy/DaisyExamples/libdaisy//src/sys/system.h ****     ~System() {}
 699              		.loc 2 77 5 is_stmt 1 view .LVU180
  77:../../Documents/Daisy/DaisyExamples/libdaisy//src/sys/system.h ****     ~System() {}
 700              		.loc 2 77 5 is_stmt 0 view .LVU181
 701              	.LBE203:
 702              	.LBE205:
 703              	.LBE207:
   7:DaisyDrone.cpp **** 
 704              		.loc 7 7 11 view .LVU182
 705 0010 FFF7FEFF 		bl	__aeabi_atexit
 706              	.LVL46:
 707              	.LBB208:
 708              	.LBI208:
  15:../../Documents/Daisy/DaisyExamples/daisysp//Source/Synthesis/oscillator.h ****     ~Oscillator() {}
 709              		.loc 6 15 5 is_stmt 1 view .LVU183
  15:../../Documents/Daisy/DaisyExamples/daisysp//Source/Synthesis/oscillator.h ****     ~Oscillator() {}
 710              		.loc 6 15 5 is_stmt 0 view .LVU184
 711              	.LBE208:
   9:DaisyDrone.cpp **** 
 712              		.loc 7 9 12 view .LVU185
 713 0014 044A     		ldr	r2, .L24+4
 714 0016 0649     		ldr	r1, .L24+12
 715 0018 0648     		ldr	r0, .L24+16
 716              	.LBE209:
 717              	.LBE211:
 718              		.loc 7 69 1 view .LVU186
 719 001a BDE80840 		pop	{r3, lr}
 720              		.cfi_restore 14
 721              		.cfi_restore 3
 722              		.cfi_def_cfa_offset 0
 723              	.LBB212:
 724              	.LBB210:
   9:DaisyDrone.cpp **** 
 725              		.loc 7 9 12 view .LVU187
 726 001e FFF7FEBF 		b	__aeabi_atexit
 727              	.LVL47:
 728              	.L25:
 729 0022 00BF     		.align	2
 730              	.L24:
 731 0024 00000000 		.word	.LANCHOR1
 732 0028 00000000 		.word	__dso_handle
 733 002c 00000000 		.word	_ZN5daisy9DaisySeedD1Ev
 734 0030 00000000 		.word	_ZN7daisysp10OscillatorD1Ev
 735 0034 00000000 		.word	.LANCHOR0
 736              	.LBE210:
 737              	.LBE212:
 738              		.cfi_endproc
 739              	.LFE4828:
 741              		.section	.init_array,"aw",%init_array
 742              		.align	2
 743 0000 00000000 		.word	_GLOBAL__sub_I_hw(target1)
 744              		.global	osc
 745              		.global	hw
 746              		.section	.bss.hw,"aw",%nobits
 747              		.align	2
 748              		.set	.LANCHOR1,. + 0
ARM GAS  /var/folders/j4/zsgv5hks61j070b3g480n1j40000gn/T//ccw8ESSH.s 			page 30


 751              	hw:
 752 0000 00000000 		.space	60
 752      00000000 
 752      00000000 
 752      00000000 
 752      00000000 
 753              		.section	.bss.osc,"aw",%nobits
 754              		.align	2
 755              		.set	.LANCHOR0,. + 0
 758              	osc:
 759 0000 00000000 		.space	40
 759      00000000 
 759      00000000 
 759      00000000 
 759      00000000 
 760              		.text
 761              	.Letext0:
 762              		.file 11 "/Applications/ARM/arm-none-eabi/include/machine/_default_types.h"
 763              		.file 12 "/Applications/ARM/arm-none-eabi/include/sys/_stdint.h"
 764              		.file 13 "/Applications/ARM/arm-none-eabi/include/stdint.h"
 765              		.file 14 "/Applications/ARM/lib/gcc/arm-none-eabi/10.3.1/include/stddef.h"
 766              		.file 15 "/Applications/ARM/arm-none-eabi/include/c++/10.3.1/cmath"
 767              		.file 16 "/Applications/ARM/arm-none-eabi/include/c++/10.3.1/bits/std_abs.h"
 768              		.file 17 "/Applications/ARM/arm-none-eabi/include/c++/10.3.1/cstdlib"
 769              		.file 18 "/Applications/ARM/arm-none-eabi/include/c++/10.3.1/cstdint"
 770              		.file 19 "/Applications/ARM/arm-none-eabi/include/c++/10.3.1/type_traits"
 771              		.file 20 "/Applications/ARM/arm-none-eabi/include/c++/10.3.1/debug/debug.h"
 772              		.file 21 "/Applications/ARM/arm-none-eabi/include/c++/10.3.1/arm-none-eabi/thumb/v7e-m+dp/hard/bit
 773              		.file 22 "/Applications/ARM/arm-none-eabi/include/c++/10.3.1/bits/algorithmfwd.h"
 774              		.file 23 "/Applications/ARM/arm-none-eabi/include/c++/10.3.1/bits/stl_pair.h"
 775              		.file 24 "/Applications/ARM/arm-none-eabi/include/c++/10.3.1/bits/exception_ptr.h"
 776              		.file 25 "/Applications/ARM/arm-none-eabi/include/c++/10.3.1/cstdarg"
 777              		.file 26 "/Applications/ARM/arm-none-eabi/include/c++/10.3.1/cstdio"
 778              		.file 27 "/Applications/ARM/arm-none-eabi/include/c++/10.3.1/cwchar"
 779              		.file 28 "/Applications/ARM/arm-none-eabi/include/c++/10.3.1/clocale"
 780              		.file 29 "/Applications/ARM/arm-none-eabi/include/c++/10.3.1/bits/basic_string.h"
 781              		.file 30 "/Applications/ARM/arm-none-eabi/include/c++/10.3.1/bits/stl_iterator.h"
 782              		.file 31 "/Applications/ARM/arm-none-eabi/include/c++/10.3.1/cstring"
 783              		.file 32 "/Applications/ARM/arm-none-eabi/include/c++/10.3.1/bits/predefined_ops.h"
 784              		.file 33 "/Applications/ARM/arm-none-eabi/include/sys/_types.h"
 785              		.file 34 "/Applications/ARM/arm-none-eabi/include/sys/reent.h"
 786              		.file 35 "/Applications/ARM/arm-none-eabi/include/sys/lock.h"
 787              		.file 36 "/Applications/ARM/arm-none-eabi/include/math.h"
 788              		.file 37 "/Applications/ARM/arm-none-eabi/include/stdlib.h"
 789              		.file 38 "/Applications/ARM/arm-none-eabi/include/c++/10.3.1/math.h"
 790              		.file 39 "/Applications/ARM/arm-none-eabi/include/c++/10.3.1/stdlib.h"
 791              		.file 40 "../../Documents/Daisy/DaisyExamples/libdaisy//src/daisy_core.h"
 792              		.file 41 "../../Documents/Daisy/DaisyExamples/libdaisy//src/per/tim.h"
 793              		.file 42 "../../Documents/Daisy/DaisyExamples/libdaisy//src/per/sai.h"
 794              		.file 43 "../../Documents/Daisy/DaisyExamples/libdaisy//src/hid/logger_impl.h"
 795              		.file 44 "../../Documents/Daisy/DaisyExamples/libdaisy//src/util/wav_format.h"
 796              		.file 45 "../../Documents/Daisy/DaisyExamples/libdaisy//src/hid/logger.h"
 797              		.file 46 "../../Documents/Daisy/DaisyExamples/libdaisy//src/per/gpio.h"
 798              		.file 47 "../../Documents/Daisy/DaisyExamples/libdaisy//src/dev/sdram.h"
 799              		.file 48 "/Applications/ARM/lib/gcc/arm-none-eabi/10.3.1/include/stdarg.h"
 800              		.file 49 "/Applications/ARM/arm-none-eabi/include/stdio.h"
 801              		.file 50 "../../Documents/Daisy/DaisyExamples/daisysp//Source/Control/adenv.h"
ARM GAS  /var/folders/j4/zsgv5hks61j070b3g480n1j40000gn/T//ccw8ESSH.s 			page 31


 802              		.file 51 "../../Documents/Daisy/DaisyExamples/daisysp//Source/Utility/dsp.h"
 803              		.file 52 "/Applications/ARM/arm-none-eabi/include/wchar.h"
 804              		.file 53 "/Applications/ARM/arm-none-eabi/include/locale.h"
 805              		.file 54 "/Applications/ARM/arm-none-eabi/include/string.h"
 806              		.file 55 "../../Documents/Daisy/DaisyExamples/libdaisy//src/dev/sr_595.h"
 807              		.file 56 "<built-in>"
ARM GAS  /var/folders/j4/zsgv5hks61j070b3g480n1j40000gn/T//ccw8ESSH.s 			page 32


DEFINED SYMBOLS
                            *ABS*:0000000000000000 DaisyDrone.cpp
/var/folders/j4/zsgv5hks61j070b3g480n1j40000gn/T//ccw8ESSH.s:19     .text._ZN5daisy9DaisySeedD2Ev:0000000000000000 $t
/var/folders/j4/zsgv5hks61j070b3g480n1j40000gn/T//ccw8ESSH.s:26     .text._ZN5daisy9DaisySeedD2Ev:0000000000000000 _ZN5daisy9DaisySeedD2Ev
/var/folders/j4/zsgv5hks61j070b3g480n1j40000gn/T//ccw8ESSH.s:26     .text._ZN5daisy9DaisySeedD2Ev:0000000000000000 _ZN5daisy9DaisySeedD1Ev
/var/folders/j4/zsgv5hks61j070b3g480n1j40000gn/T//ccw8ESSH.s:67     .text._ZN7daisysp10OscillatorD2Ev:0000000000000000 $t
/var/folders/j4/zsgv5hks61j070b3g480n1j40000gn/T//ccw8ESSH.s:74     .text._ZN7daisysp10OscillatorD2Ev:0000000000000000 _ZN7daisysp10OscillatorD2Ev
/var/folders/j4/zsgv5hks61j070b3g480n1j40000gn/T//ccw8ESSH.s:74     .text._ZN7daisysp10OscillatorD2Ev:0000000000000000 _ZN7daisysp10OscillatorD1Ev
/var/folders/j4/zsgv5hks61j070b3g480n1j40000gn/T//ccw8ESSH.s:91     .text._Z14audio_callbackPKPKfPPfj:0000000000000000 $t
/var/folders/j4/zsgv5hks61j070b3g480n1j40000gn/T//ccw8ESSH.s:98     .text._Z14audio_callbackPKPKfPPfj:0000000000000000 _Z14audio_callbackPKPKfPPfj
/var/folders/j4/zsgv5hks61j070b3g480n1j40000gn/T//ccw8ESSH.s:173    .text._Z14audio_callbackPKPKfPPfj:0000000000000030 $d
/var/folders/j4/zsgv5hks61j070b3g480n1j40000gn/T//ccw8ESSH.s:178    .rodata.main.str1.4:0000000000000000 $d
/var/folders/j4/zsgv5hks61j070b3g480n1j40000gn/T//ccw8ESSH.s:188    .text.startup.main:0000000000000000 $t
/var/folders/j4/zsgv5hks61j070b3g480n1j40000gn/T//ccw8ESSH.s:195    .text.startup.main:0000000000000000 main
/var/folders/j4/zsgv5hks61j070b3g480n1j40000gn/T//ccw8ESSH.s:582    .text.startup.main:0000000000000150 $d
/var/folders/j4/zsgv5hks61j070b3g480n1j40000gn/T//ccw8ESSH.s:597    .text.startup._GLOBAL__sub_I_hw:0000000000000000 $t
/var/folders/j4/zsgv5hks61j070b3g480n1j40000gn/T//ccw8ESSH.s:603    .text.startup._GLOBAL__sub_I_hw:0000000000000000 _GLOBAL__sub_I_hw
/var/folders/j4/zsgv5hks61j070b3g480n1j40000gn/T//ccw8ESSH.s:731    .text.startup._GLOBAL__sub_I_hw:0000000000000024 $d
/var/folders/j4/zsgv5hks61j070b3g480n1j40000gn/T//ccw8ESSH.s:742    .init_array:0000000000000000 $d
/var/folders/j4/zsgv5hks61j070b3g480n1j40000gn/T//ccw8ESSH.s:758    .bss.osc:0000000000000000 osc
/var/folders/j4/zsgv5hks61j070b3g480n1j40000gn/T//ccw8ESSH.s:751    .bss.hw:0000000000000000 hw
/var/folders/j4/zsgv5hks61j070b3g480n1j40000gn/T//ccw8ESSH.s:747    .bss.hw:0000000000000000 $d
/var/folders/j4/zsgv5hks61j070b3g480n1j40000gn/T//ccw8ESSH.s:754    .bss.osc:0000000000000000 $d
                           .group:0000000000000000 _ZN5daisy9DaisySeedD5Ev
                           .group:0000000000000000 _ZN7daisysp10OscillatorD5Ev

UNDEFINED SYMBOLS
_ZN7daisysp10Oscillator7ProcessEv
_ZN5daisy9DaisySeed9ConfigureEv
_ZN5daisy9DaisySeed4InitEb
_ZN5daisy6LoggerILNS_17LoggerDestinationE1EE8StartLogEb
_ZN5daisy9DaisySeed6GetPinEh
_ZN5daisy3Led4InitE12dsy_gpio_pinbf
_ZN5daisy16AdcChannelConfig10InitSingleE12dsy_gpio_pin
_ZN5daisy9AdcHandle4InitEPNS_16AdcChannelConfigEjNS0_12OverSamplingE
_ZN5daisy9AdcHandle5StartEv
_ZN5daisy9DaisySeed15AudioSampleRateEv
_ZN7daisysp10Oscillator12CalcPhaseIncEf
_ZN5daisy9DaisySeed10StartAudioEPFvPKPKfPPfjE
_ZN5daisy6LoggerILNS_17LoggerDestinationE1EE9PrintLineEPKcz
_ZNK5daisy9AdcHandle8GetFloatEh
_ZN5daisy3Led3SetEf
_ZN5daisy3Led6UpdateEv
_ZN5daisy6System5DelayEm
__aeabi_atexit
__dso_handle
